
Slave.elf:     file format elf32-avr

Sections:
Idx Name          Size      VMA       LMA       File off  Algn
  0 .text         00002fce  00000000  00000000  00000094  2**1
                  CONTENTS, ALLOC, LOAD, READONLY, CODE
  1 .data         0000000a  00800060  00002fce  00003062  2**0
                  CONTENTS, ALLOC, LOAD, DATA
  2 .bss          0000000b  0080006a  0080006a  0000306c  2**0
                  ALLOC
  3 .stab         000033b4  00000000  00000000  0000306c  2**2
                  CONTENTS, READONLY, DEBUGGING
  4 .stabstr      0000101d  00000000  00000000  00006420  2**0
                  CONTENTS, READONLY, DEBUGGING
  5 .comment      00000012  00000000  00000000  0000743d  2**0
                  CONTENTS, READONLY
  6 .note.gnu.avr.deviceinfo 0000003c  00000000  00000000  00007450  2**2
                  CONTENTS, READONLY, OCTETS
  7 .debug_aranges 000000a0  00000000  00000000  00007490  2**3
                  CONTENTS, READONLY, DEBUGGING, OCTETS
  8 .debug_info   000005a4  00000000  00000000  00007530  2**0
                  CONTENTS, READONLY, DEBUGGING, OCTETS
  9 .debug_abbrev 00000507  00000000  00000000  00007ad4  2**0
                  CONTENTS, READONLY, DEBUGGING, OCTETS
 10 .debug_line   0000036a  00000000  00000000  00007fdb  2**0
                  CONTENTS, READONLY, DEBUGGING, OCTETS
 11 .debug_str    000001f8  00000000  00000000  00008345  2**0
                  CONTENTS, READONLY, DEBUGGING, OCTETS

Disassembly of section .text:

00000000 <__vectors>:
       0:	0c 94 2a 00 	jmp	0x54	; 0x54 <__ctors_end>
       4:	0c 94 47 00 	jmp	0x8e	; 0x8e <__bad_interrupt>
       8:	0c 94 47 00 	jmp	0x8e	; 0x8e <__bad_interrupt>
       c:	0c 94 47 00 	jmp	0x8e	; 0x8e <__bad_interrupt>
      10:	0c 94 47 00 	jmp	0x8e	; 0x8e <__bad_interrupt>
      14:	0c 94 47 00 	jmp	0x8e	; 0x8e <__bad_interrupt>
      18:	0c 94 47 00 	jmp	0x8e	; 0x8e <__bad_interrupt>
      1c:	0c 94 47 00 	jmp	0x8e	; 0x8e <__bad_interrupt>
      20:	0c 94 47 00 	jmp	0x8e	; 0x8e <__bad_interrupt>
      24:	0c 94 47 00 	jmp	0x8e	; 0x8e <__bad_interrupt>
      28:	0c 94 47 00 	jmp	0x8e	; 0x8e <__bad_interrupt>
      2c:	0c 94 47 00 	jmp	0x8e	; 0x8e <__bad_interrupt>
      30:	0c 94 88 12 	jmp	0x2510	; 0x2510 <__vector_12>
      34:	0c 94 7f 15 	jmp	0x2afe	; 0x2afe <__vector_13>
      38:	0c 94 30 16 	jmp	0x2c60	; 0x2c60 <__vector_14>
      3c:	0c 94 47 00 	jmp	0x8e	; 0x8e <__bad_interrupt>
      40:	0c 94 47 00 	jmp	0x8e	; 0x8e <__bad_interrupt>
      44:	0c 94 47 00 	jmp	0x8e	; 0x8e <__bad_interrupt>
      48:	0c 94 47 00 	jmp	0x8e	; 0x8e <__bad_interrupt>
      4c:	0c 94 47 00 	jmp	0x8e	; 0x8e <__bad_interrupt>
      50:	0c 94 47 00 	jmp	0x8e	; 0x8e <__bad_interrupt>

00000054 <__ctors_end>:
      54:	11 24       	eor	r1, r1
      56:	1f be       	out	0x3f, r1	; 63
      58:	cf e5       	ldi	r28, 0x5F	; 95
      5a:	d8 e0       	ldi	r29, 0x08	; 8
      5c:	de bf       	out	0x3e, r29	; 62
      5e:	cd bf       	out	0x3d, r28	; 61

00000060 <__do_copy_data>:
      60:	10 e0       	ldi	r17, 0x00	; 0
      62:	a0 e6       	ldi	r26, 0x60	; 96
      64:	b0 e0       	ldi	r27, 0x00	; 0
      66:	ee ec       	ldi	r30, 0xCE	; 206
      68:	ff e2       	ldi	r31, 0x2F	; 47
      6a:	02 c0       	rjmp	.+4      	; 0x70 <__do_copy_data+0x10>
      6c:	05 90       	lpm	r0, Z+
      6e:	0d 92       	st	X+, r0
      70:	aa 36       	cpi	r26, 0x6A	; 106
      72:	b1 07       	cpc	r27, r17
      74:	d9 f7       	brne	.-10     	; 0x6c <__do_copy_data+0xc>

00000076 <__do_clear_bss>:
      76:	20 e0       	ldi	r18, 0x00	; 0
      78:	aa e6       	ldi	r26, 0x6A	; 106
      7a:	b0 e0       	ldi	r27, 0x00	; 0
      7c:	01 c0       	rjmp	.+2      	; 0x80 <.do_clear_bss_start>

0000007e <.do_clear_bss_loop>:
      7e:	1d 92       	st	X+, r1

00000080 <.do_clear_bss_start>:
      80:	a5 37       	cpi	r26, 0x75	; 117
      82:	b2 07       	cpc	r27, r18
      84:	e1 f7       	brne	.-8      	; 0x7e <.do_clear_bss_loop>
      86:	0e 94 48 0f 	call	0x1e90	; 0x1e90 <main>
      8a:	0c 94 e5 17 	jmp	0x2fca	; 0x2fca <_exit>

0000008e <__bad_interrupt>:
      8e:	0c 94 00 00 	jmp	0	; 0x0 <__vectors>

00000092 <MCAL_DIO_u8SetPinDir>:
      92:	cf 93       	push	r28
      94:	df 93       	push	r29
      96:	00 d0       	rcall	.+0      	; 0x98 <MCAL_DIO_u8SetPinDir+0x6>
      98:	00 d0       	rcall	.+0      	; 0x9a <MCAL_DIO_u8SetPinDir+0x8>
      9a:	cd b7       	in	r28, 0x3d	; 61
      9c:	de b7       	in	r29, 0x3e	; 62
      9e:	8a 83       	std	Y+2, r24	; 0x02
      a0:	6b 83       	std	Y+3, r22	; 0x03
      a2:	4c 83       	std	Y+4, r20	; 0x04
      a4:	81 e0       	ldi	r24, 0x01	; 1
      a6:	89 83       	std	Y+1, r24	; 0x01
      a8:	8b 81       	ldd	r24, Y+3	; 0x03
      aa:	88 30       	cpi	r24, 0x08	; 8
      ac:	08 f0       	brcs	.+2      	; 0xb0 <MCAL_DIO_u8SetPinDir+0x1e>
      ae:	a6 c0       	rjmp	.+332    	; 0x1fc <MCAL_DIO_u8SetPinDir+0x16a>
      b0:	8a 81       	ldd	r24, Y+2	; 0x02
      b2:	88 2f       	mov	r24, r24
      b4:	90 e0       	ldi	r25, 0x00	; 0
      b6:	83 30       	cpi	r24, 0x03	; 3
      b8:	91 05       	cpc	r25, r1
      ba:	09 f4       	brne	.+2      	; 0xbe <MCAL_DIO_u8SetPinDir+0x2c>
      bc:	7a c0       	rjmp	.+244    	; 0x1b2 <MCAL_DIO_u8SetPinDir+0x120>
      be:	84 30       	cpi	r24, 0x04	; 4
      c0:	91 05       	cpc	r25, r1
      c2:	0c f0       	brlt	.+2      	; 0xc6 <MCAL_DIO_u8SetPinDir+0x34>
      c4:	99 c0       	rjmp	.+306    	; 0x1f8 <MCAL_DIO_u8SetPinDir+0x166>
      c6:	82 30       	cpi	r24, 0x02	; 2
      c8:	91 05       	cpc	r25, r1
      ca:	09 f4       	brne	.+2      	; 0xce <MCAL_DIO_u8SetPinDir+0x3c>
      cc:	4f c0       	rjmp	.+158    	; 0x16c <MCAL_DIO_u8SetPinDir+0xda>
      ce:	83 30       	cpi	r24, 0x03	; 3
      d0:	91 05       	cpc	r25, r1
      d2:	0c f0       	brlt	.+2      	; 0xd6 <MCAL_DIO_u8SetPinDir+0x44>
      d4:	91 c0       	rjmp	.+290    	; 0x1f8 <MCAL_DIO_u8SetPinDir+0x166>
      d6:	00 97       	sbiw	r24, 0x00	; 0
      d8:	19 f0       	breq	.+6      	; 0xe0 <MCAL_DIO_u8SetPinDir+0x4e>
      da:	01 97       	sbiw	r24, 0x01	; 1
      dc:	21 f1       	breq	.+72     	; 0x126 <MCAL_DIO_u8SetPinDir+0x94>
      de:	8c c0       	rjmp	.+280    	; 0x1f8 <MCAL_DIO_u8SetPinDir+0x166>
      e0:	8a e3       	ldi	r24, 0x3A	; 58
      e2:	90 e0       	ldi	r25, 0x00	; 0
      e4:	fc 01       	movw	r30, r24
      e6:	80 81       	ld	r24, Z
      e8:	48 2f       	mov	r20, r24
      ea:	8b 81       	ldd	r24, Y+3	; 0x03
      ec:	28 2f       	mov	r18, r24
      ee:	30 e0       	ldi	r19, 0x00	; 0
      f0:	81 e0       	ldi	r24, 0x01	; 1
      f2:	90 e0       	ldi	r25, 0x00	; 0
      f4:	02 c0       	rjmp	.+4      	; 0xfa <MCAL_DIO_u8SetPinDir+0x68>
      f6:	88 0f       	add	r24, r24
      f8:	99 1f       	adc	r25, r25
      fa:	2a 95       	dec	r18
      fc:	e2 f7       	brpl	.-8      	; 0xf6 <MCAL_DIO_u8SetPinDir+0x64>
      fe:	80 95       	com	r24
     100:	48 23       	and	r20, r24
     102:	8c 81       	ldd	r24, Y+4	; 0x04
     104:	88 2f       	mov	r24, r24
     106:	90 e0       	ldi	r25, 0x00	; 0
     108:	2b 81       	ldd	r18, Y+3	; 0x03
     10a:	22 2f       	mov	r18, r18
     10c:	30 e0       	ldi	r19, 0x00	; 0
     10e:	02 c0       	rjmp	.+4      	; 0x114 <MCAL_DIO_u8SetPinDir+0x82>
     110:	88 0f       	add	r24, r24
     112:	99 1f       	adc	r25, r25
     114:	2a 95       	dec	r18
     116:	e2 f7       	brpl	.-8      	; 0x110 <MCAL_DIO_u8SetPinDir+0x7e>
     118:	24 2f       	mov	r18, r20
     11a:	28 2b       	or	r18, r24
     11c:	8a e3       	ldi	r24, 0x3A	; 58
     11e:	90 e0       	ldi	r25, 0x00	; 0
     120:	fc 01       	movw	r30, r24
     122:	20 83       	st	Z, r18
     124:	6c c0       	rjmp	.+216    	; 0x1fe <MCAL_DIO_u8SetPinDir+0x16c>
     126:	87 e3       	ldi	r24, 0x37	; 55
     128:	90 e0       	ldi	r25, 0x00	; 0
     12a:	fc 01       	movw	r30, r24
     12c:	80 81       	ld	r24, Z
     12e:	48 2f       	mov	r20, r24
     130:	8b 81       	ldd	r24, Y+3	; 0x03
     132:	28 2f       	mov	r18, r24
     134:	30 e0       	ldi	r19, 0x00	; 0
     136:	81 e0       	ldi	r24, 0x01	; 1
     138:	90 e0       	ldi	r25, 0x00	; 0
     13a:	02 c0       	rjmp	.+4      	; 0x140 <MCAL_DIO_u8SetPinDir+0xae>
     13c:	88 0f       	add	r24, r24
     13e:	99 1f       	adc	r25, r25
     140:	2a 95       	dec	r18
     142:	e2 f7       	brpl	.-8      	; 0x13c <MCAL_DIO_u8SetPinDir+0xaa>
     144:	80 95       	com	r24
     146:	48 23       	and	r20, r24
     148:	8c 81       	ldd	r24, Y+4	; 0x04
     14a:	88 2f       	mov	r24, r24
     14c:	90 e0       	ldi	r25, 0x00	; 0
     14e:	2b 81       	ldd	r18, Y+3	; 0x03
     150:	22 2f       	mov	r18, r18
     152:	30 e0       	ldi	r19, 0x00	; 0
     154:	02 c0       	rjmp	.+4      	; 0x15a <MCAL_DIO_u8SetPinDir+0xc8>
     156:	88 0f       	add	r24, r24
     158:	99 1f       	adc	r25, r25
     15a:	2a 95       	dec	r18
     15c:	e2 f7       	brpl	.-8      	; 0x156 <MCAL_DIO_u8SetPinDir+0xc4>
     15e:	24 2f       	mov	r18, r20
     160:	28 2b       	or	r18, r24
     162:	87 e3       	ldi	r24, 0x37	; 55
     164:	90 e0       	ldi	r25, 0x00	; 0
     166:	fc 01       	movw	r30, r24
     168:	20 83       	st	Z, r18
     16a:	49 c0       	rjmp	.+146    	; 0x1fe <MCAL_DIO_u8SetPinDir+0x16c>
     16c:	84 e3       	ldi	r24, 0x34	; 52
     16e:	90 e0       	ldi	r25, 0x00	; 0
     170:	fc 01       	movw	r30, r24
     172:	80 81       	ld	r24, Z
     174:	48 2f       	mov	r20, r24
     176:	8b 81       	ldd	r24, Y+3	; 0x03
     178:	28 2f       	mov	r18, r24
     17a:	30 e0       	ldi	r19, 0x00	; 0
     17c:	81 e0       	ldi	r24, 0x01	; 1
     17e:	90 e0       	ldi	r25, 0x00	; 0
     180:	02 c0       	rjmp	.+4      	; 0x186 <MCAL_DIO_u8SetPinDir+0xf4>
     182:	88 0f       	add	r24, r24
     184:	99 1f       	adc	r25, r25
     186:	2a 95       	dec	r18
     188:	e2 f7       	brpl	.-8      	; 0x182 <MCAL_DIO_u8SetPinDir+0xf0>
     18a:	80 95       	com	r24
     18c:	48 23       	and	r20, r24
     18e:	8c 81       	ldd	r24, Y+4	; 0x04
     190:	88 2f       	mov	r24, r24
     192:	90 e0       	ldi	r25, 0x00	; 0
     194:	2b 81       	ldd	r18, Y+3	; 0x03
     196:	22 2f       	mov	r18, r18
     198:	30 e0       	ldi	r19, 0x00	; 0
     19a:	02 c0       	rjmp	.+4      	; 0x1a0 <MCAL_DIO_u8SetPinDir+0x10e>
     19c:	88 0f       	add	r24, r24
     19e:	99 1f       	adc	r25, r25
     1a0:	2a 95       	dec	r18
     1a2:	e2 f7       	brpl	.-8      	; 0x19c <MCAL_DIO_u8SetPinDir+0x10a>
     1a4:	24 2f       	mov	r18, r20
     1a6:	28 2b       	or	r18, r24
     1a8:	84 e3       	ldi	r24, 0x34	; 52
     1aa:	90 e0       	ldi	r25, 0x00	; 0
     1ac:	fc 01       	movw	r30, r24
     1ae:	20 83       	st	Z, r18
     1b0:	26 c0       	rjmp	.+76     	; 0x1fe <MCAL_DIO_u8SetPinDir+0x16c>
     1b2:	81 e3       	ldi	r24, 0x31	; 49
     1b4:	90 e0       	ldi	r25, 0x00	; 0
     1b6:	fc 01       	movw	r30, r24
     1b8:	80 81       	ld	r24, Z
     1ba:	48 2f       	mov	r20, r24
     1bc:	8b 81       	ldd	r24, Y+3	; 0x03
     1be:	28 2f       	mov	r18, r24
     1c0:	30 e0       	ldi	r19, 0x00	; 0
     1c2:	81 e0       	ldi	r24, 0x01	; 1
     1c4:	90 e0       	ldi	r25, 0x00	; 0
     1c6:	02 c0       	rjmp	.+4      	; 0x1cc <MCAL_DIO_u8SetPinDir+0x13a>
     1c8:	88 0f       	add	r24, r24
     1ca:	99 1f       	adc	r25, r25
     1cc:	2a 95       	dec	r18
     1ce:	e2 f7       	brpl	.-8      	; 0x1c8 <MCAL_DIO_u8SetPinDir+0x136>
     1d0:	80 95       	com	r24
     1d2:	48 23       	and	r20, r24
     1d4:	8c 81       	ldd	r24, Y+4	; 0x04
     1d6:	88 2f       	mov	r24, r24
     1d8:	90 e0       	ldi	r25, 0x00	; 0
     1da:	2b 81       	ldd	r18, Y+3	; 0x03
     1dc:	22 2f       	mov	r18, r18
     1de:	30 e0       	ldi	r19, 0x00	; 0
     1e0:	02 c0       	rjmp	.+4      	; 0x1e6 <MCAL_DIO_u8SetPinDir+0x154>
     1e2:	88 0f       	add	r24, r24
     1e4:	99 1f       	adc	r25, r25
     1e6:	2a 95       	dec	r18
     1e8:	e2 f7       	brpl	.-8      	; 0x1e2 <MCAL_DIO_u8SetPinDir+0x150>
     1ea:	24 2f       	mov	r18, r20
     1ec:	28 2b       	or	r18, r24
     1ee:	81 e3       	ldi	r24, 0x31	; 49
     1f0:	90 e0       	ldi	r25, 0x00	; 0
     1f2:	fc 01       	movw	r30, r24
     1f4:	20 83       	st	Z, r18
     1f6:	03 c0       	rjmp	.+6      	; 0x1fe <MCAL_DIO_u8SetPinDir+0x16c>
     1f8:	19 82       	std	Y+1, r1	; 0x01
     1fa:	01 c0       	rjmp	.+2      	; 0x1fe <MCAL_DIO_u8SetPinDir+0x16c>
     1fc:	19 82       	std	Y+1, r1	; 0x01
     1fe:	89 81       	ldd	r24, Y+1	; 0x01
     200:	0f 90       	pop	r0
     202:	0f 90       	pop	r0
     204:	0f 90       	pop	r0
     206:	0f 90       	pop	r0
     208:	df 91       	pop	r29
     20a:	cf 91       	pop	r28
     20c:	08 95       	ret

0000020e <MCAL_DIO_u8SetPortDir>:
     20e:	cf 93       	push	r28
     210:	df 93       	push	r29
     212:	00 d0       	rcall	.+0      	; 0x214 <MCAL_DIO_u8SetPortDir+0x6>
     214:	0f 92       	push	r0
     216:	cd b7       	in	r28, 0x3d	; 61
     218:	de b7       	in	r29, 0x3e	; 62
     21a:	8a 83       	std	Y+2, r24	; 0x02
     21c:	6b 83       	std	Y+3, r22	; 0x03
     21e:	81 e0       	ldi	r24, 0x01	; 1
     220:	89 83       	std	Y+1, r24	; 0x01
     222:	8a 81       	ldd	r24, Y+2	; 0x02
     224:	88 2f       	mov	r24, r24
     226:	90 e0       	ldi	r25, 0x00	; 0
     228:	83 30       	cpi	r24, 0x03	; 3
     22a:	91 05       	cpc	r25, r1
     22c:	01 f1       	breq	.+64     	; 0x26e <MCAL_DIO_u8SetPortDir+0x60>
     22e:	84 30       	cpi	r24, 0x04	; 4
     230:	91 05       	cpc	r25, r1
     232:	1c f5       	brge	.+70     	; 0x27a <MCAL_DIO_u8SetPortDir+0x6c>
     234:	82 30       	cpi	r24, 0x02	; 2
     236:	91 05       	cpc	r25, r1
     238:	a1 f0       	breq	.+40     	; 0x262 <MCAL_DIO_u8SetPortDir+0x54>
     23a:	83 30       	cpi	r24, 0x03	; 3
     23c:	91 05       	cpc	r25, r1
     23e:	ec f4       	brge	.+58     	; 0x27a <MCAL_DIO_u8SetPortDir+0x6c>
     240:	00 97       	sbiw	r24, 0x00	; 0
     242:	19 f0       	breq	.+6      	; 0x24a <MCAL_DIO_u8SetPortDir+0x3c>
     244:	01 97       	sbiw	r24, 0x01	; 1
     246:	39 f0       	breq	.+14     	; 0x256 <MCAL_DIO_u8SetPortDir+0x48>
     248:	18 c0       	rjmp	.+48     	; 0x27a <MCAL_DIO_u8SetPortDir+0x6c>
     24a:	8a e3       	ldi	r24, 0x3A	; 58
     24c:	90 e0       	ldi	r25, 0x00	; 0
     24e:	2b 81       	ldd	r18, Y+3	; 0x03
     250:	fc 01       	movw	r30, r24
     252:	20 83       	st	Z, r18
     254:	14 c0       	rjmp	.+40     	; 0x27e <MCAL_DIO_u8SetPortDir+0x70>
     256:	8a e3       	ldi	r24, 0x3A	; 58
     258:	90 e0       	ldi	r25, 0x00	; 0
     25a:	2b 81       	ldd	r18, Y+3	; 0x03
     25c:	fc 01       	movw	r30, r24
     25e:	20 83       	st	Z, r18
     260:	0e c0       	rjmp	.+28     	; 0x27e <MCAL_DIO_u8SetPortDir+0x70>
     262:	8a e3       	ldi	r24, 0x3A	; 58
     264:	90 e0       	ldi	r25, 0x00	; 0
     266:	2b 81       	ldd	r18, Y+3	; 0x03
     268:	fc 01       	movw	r30, r24
     26a:	20 83       	st	Z, r18
     26c:	08 c0       	rjmp	.+16     	; 0x27e <MCAL_DIO_u8SetPortDir+0x70>
     26e:	8a e3       	ldi	r24, 0x3A	; 58
     270:	90 e0       	ldi	r25, 0x00	; 0
     272:	2b 81       	ldd	r18, Y+3	; 0x03
     274:	fc 01       	movw	r30, r24
     276:	20 83       	st	Z, r18
     278:	02 c0       	rjmp	.+4      	; 0x27e <MCAL_DIO_u8SetPortDir+0x70>
     27a:	19 82       	std	Y+1, r1	; 0x01
     27c:	00 00       	nop
     27e:	89 81       	ldd	r24, Y+1	; 0x01
     280:	0f 90       	pop	r0
     282:	0f 90       	pop	r0
     284:	0f 90       	pop	r0
     286:	df 91       	pop	r29
     288:	cf 91       	pop	r28
     28a:	08 95       	ret

0000028c <MCAL_DIO_u8SetPinValue>:
     28c:	cf 93       	push	r28
     28e:	df 93       	push	r29
     290:	00 d0       	rcall	.+0      	; 0x292 <MCAL_DIO_u8SetPinValue+0x6>
     292:	00 d0       	rcall	.+0      	; 0x294 <MCAL_DIO_u8SetPinValue+0x8>
     294:	cd b7       	in	r28, 0x3d	; 61
     296:	de b7       	in	r29, 0x3e	; 62
     298:	8a 83       	std	Y+2, r24	; 0x02
     29a:	6b 83       	std	Y+3, r22	; 0x03
     29c:	4c 83       	std	Y+4, r20	; 0x04
     29e:	81 e0       	ldi	r24, 0x01	; 1
     2a0:	89 83       	std	Y+1, r24	; 0x01
     2a2:	8b 81       	ldd	r24, Y+3	; 0x03
     2a4:	88 30       	cpi	r24, 0x08	; 8
     2a6:	08 f0       	brcs	.+2      	; 0x2aa <MCAL_DIO_u8SetPinValue+0x1e>
     2a8:	a6 c0       	rjmp	.+332    	; 0x3f6 <MCAL_DIO_u8SetPinValue+0x16a>
     2aa:	8a 81       	ldd	r24, Y+2	; 0x02
     2ac:	88 2f       	mov	r24, r24
     2ae:	90 e0       	ldi	r25, 0x00	; 0
     2b0:	83 30       	cpi	r24, 0x03	; 3
     2b2:	91 05       	cpc	r25, r1
     2b4:	09 f4       	brne	.+2      	; 0x2b8 <MCAL_DIO_u8SetPinValue+0x2c>
     2b6:	7a c0       	rjmp	.+244    	; 0x3ac <MCAL_DIO_u8SetPinValue+0x120>
     2b8:	84 30       	cpi	r24, 0x04	; 4
     2ba:	91 05       	cpc	r25, r1
     2bc:	0c f0       	brlt	.+2      	; 0x2c0 <MCAL_DIO_u8SetPinValue+0x34>
     2be:	99 c0       	rjmp	.+306    	; 0x3f2 <MCAL_DIO_u8SetPinValue+0x166>
     2c0:	82 30       	cpi	r24, 0x02	; 2
     2c2:	91 05       	cpc	r25, r1
     2c4:	09 f4       	brne	.+2      	; 0x2c8 <MCAL_DIO_u8SetPinValue+0x3c>
     2c6:	4f c0       	rjmp	.+158    	; 0x366 <MCAL_DIO_u8SetPinValue+0xda>
     2c8:	83 30       	cpi	r24, 0x03	; 3
     2ca:	91 05       	cpc	r25, r1
     2cc:	0c f0       	brlt	.+2      	; 0x2d0 <MCAL_DIO_u8SetPinValue+0x44>
     2ce:	91 c0       	rjmp	.+290    	; 0x3f2 <MCAL_DIO_u8SetPinValue+0x166>
     2d0:	00 97       	sbiw	r24, 0x00	; 0
     2d2:	19 f0       	breq	.+6      	; 0x2da <MCAL_DIO_u8SetPinValue+0x4e>
     2d4:	01 97       	sbiw	r24, 0x01	; 1
     2d6:	21 f1       	breq	.+72     	; 0x320 <MCAL_DIO_u8SetPinValue+0x94>
     2d8:	8c c0       	rjmp	.+280    	; 0x3f2 <MCAL_DIO_u8SetPinValue+0x166>
     2da:	8b e3       	ldi	r24, 0x3B	; 59
     2dc:	90 e0       	ldi	r25, 0x00	; 0
     2de:	fc 01       	movw	r30, r24
     2e0:	80 81       	ld	r24, Z
     2e2:	48 2f       	mov	r20, r24
     2e4:	8b 81       	ldd	r24, Y+3	; 0x03
     2e6:	28 2f       	mov	r18, r24
     2e8:	30 e0       	ldi	r19, 0x00	; 0
     2ea:	81 e0       	ldi	r24, 0x01	; 1
     2ec:	90 e0       	ldi	r25, 0x00	; 0
     2ee:	02 c0       	rjmp	.+4      	; 0x2f4 <MCAL_DIO_u8SetPinValue+0x68>
     2f0:	88 0f       	add	r24, r24
     2f2:	99 1f       	adc	r25, r25
     2f4:	2a 95       	dec	r18
     2f6:	e2 f7       	brpl	.-8      	; 0x2f0 <MCAL_DIO_u8SetPinValue+0x64>
     2f8:	80 95       	com	r24
     2fa:	48 23       	and	r20, r24
     2fc:	8c 81       	ldd	r24, Y+4	; 0x04
     2fe:	88 2f       	mov	r24, r24
     300:	90 e0       	ldi	r25, 0x00	; 0
     302:	2b 81       	ldd	r18, Y+3	; 0x03
     304:	22 2f       	mov	r18, r18
     306:	30 e0       	ldi	r19, 0x00	; 0
     308:	02 c0       	rjmp	.+4      	; 0x30e <MCAL_DIO_u8SetPinValue+0x82>
     30a:	88 0f       	add	r24, r24
     30c:	99 1f       	adc	r25, r25
     30e:	2a 95       	dec	r18
     310:	e2 f7       	brpl	.-8      	; 0x30a <MCAL_DIO_u8SetPinValue+0x7e>
     312:	24 2f       	mov	r18, r20
     314:	28 2b       	or	r18, r24
     316:	8b e3       	ldi	r24, 0x3B	; 59
     318:	90 e0       	ldi	r25, 0x00	; 0
     31a:	fc 01       	movw	r30, r24
     31c:	20 83       	st	Z, r18
     31e:	6c c0       	rjmp	.+216    	; 0x3f8 <MCAL_DIO_u8SetPinValue+0x16c>
     320:	88 e3       	ldi	r24, 0x38	; 56
     322:	90 e0       	ldi	r25, 0x00	; 0
     324:	fc 01       	movw	r30, r24
     326:	80 81       	ld	r24, Z
     328:	48 2f       	mov	r20, r24
     32a:	8b 81       	ldd	r24, Y+3	; 0x03
     32c:	28 2f       	mov	r18, r24
     32e:	30 e0       	ldi	r19, 0x00	; 0
     330:	81 e0       	ldi	r24, 0x01	; 1
     332:	90 e0       	ldi	r25, 0x00	; 0
     334:	02 c0       	rjmp	.+4      	; 0x33a <MCAL_DIO_u8SetPinValue+0xae>
     336:	88 0f       	add	r24, r24
     338:	99 1f       	adc	r25, r25
     33a:	2a 95       	dec	r18
     33c:	e2 f7       	brpl	.-8      	; 0x336 <MCAL_DIO_u8SetPinValue+0xaa>
     33e:	80 95       	com	r24
     340:	48 23       	and	r20, r24
     342:	8c 81       	ldd	r24, Y+4	; 0x04
     344:	88 2f       	mov	r24, r24
     346:	90 e0       	ldi	r25, 0x00	; 0
     348:	2b 81       	ldd	r18, Y+3	; 0x03
     34a:	22 2f       	mov	r18, r18
     34c:	30 e0       	ldi	r19, 0x00	; 0
     34e:	02 c0       	rjmp	.+4      	; 0x354 <MCAL_DIO_u8SetPinValue+0xc8>
     350:	88 0f       	add	r24, r24
     352:	99 1f       	adc	r25, r25
     354:	2a 95       	dec	r18
     356:	e2 f7       	brpl	.-8      	; 0x350 <MCAL_DIO_u8SetPinValue+0xc4>
     358:	24 2f       	mov	r18, r20
     35a:	28 2b       	or	r18, r24
     35c:	88 e3       	ldi	r24, 0x38	; 56
     35e:	90 e0       	ldi	r25, 0x00	; 0
     360:	fc 01       	movw	r30, r24
     362:	20 83       	st	Z, r18
     364:	49 c0       	rjmp	.+146    	; 0x3f8 <MCAL_DIO_u8SetPinValue+0x16c>
     366:	85 e3       	ldi	r24, 0x35	; 53
     368:	90 e0       	ldi	r25, 0x00	; 0
     36a:	fc 01       	movw	r30, r24
     36c:	80 81       	ld	r24, Z
     36e:	48 2f       	mov	r20, r24
     370:	8b 81       	ldd	r24, Y+3	; 0x03
     372:	28 2f       	mov	r18, r24
     374:	30 e0       	ldi	r19, 0x00	; 0
     376:	81 e0       	ldi	r24, 0x01	; 1
     378:	90 e0       	ldi	r25, 0x00	; 0
     37a:	02 c0       	rjmp	.+4      	; 0x380 <MCAL_DIO_u8SetPinValue+0xf4>
     37c:	88 0f       	add	r24, r24
     37e:	99 1f       	adc	r25, r25
     380:	2a 95       	dec	r18
     382:	e2 f7       	brpl	.-8      	; 0x37c <MCAL_DIO_u8SetPinValue+0xf0>
     384:	80 95       	com	r24
     386:	48 23       	and	r20, r24
     388:	8c 81       	ldd	r24, Y+4	; 0x04
     38a:	88 2f       	mov	r24, r24
     38c:	90 e0       	ldi	r25, 0x00	; 0
     38e:	2b 81       	ldd	r18, Y+3	; 0x03
     390:	22 2f       	mov	r18, r18
     392:	30 e0       	ldi	r19, 0x00	; 0
     394:	02 c0       	rjmp	.+4      	; 0x39a <MCAL_DIO_u8SetPinValue+0x10e>
     396:	88 0f       	add	r24, r24
     398:	99 1f       	adc	r25, r25
     39a:	2a 95       	dec	r18
     39c:	e2 f7       	brpl	.-8      	; 0x396 <MCAL_DIO_u8SetPinValue+0x10a>
     39e:	24 2f       	mov	r18, r20
     3a0:	28 2b       	or	r18, r24
     3a2:	85 e3       	ldi	r24, 0x35	; 53
     3a4:	90 e0       	ldi	r25, 0x00	; 0
     3a6:	fc 01       	movw	r30, r24
     3a8:	20 83       	st	Z, r18
     3aa:	26 c0       	rjmp	.+76     	; 0x3f8 <MCAL_DIO_u8SetPinValue+0x16c>
     3ac:	82 e3       	ldi	r24, 0x32	; 50
     3ae:	90 e0       	ldi	r25, 0x00	; 0
     3b0:	fc 01       	movw	r30, r24
     3b2:	80 81       	ld	r24, Z
     3b4:	48 2f       	mov	r20, r24
     3b6:	8b 81       	ldd	r24, Y+3	; 0x03
     3b8:	28 2f       	mov	r18, r24
     3ba:	30 e0       	ldi	r19, 0x00	; 0
     3bc:	81 e0       	ldi	r24, 0x01	; 1
     3be:	90 e0       	ldi	r25, 0x00	; 0
     3c0:	02 c0       	rjmp	.+4      	; 0x3c6 <MCAL_DIO_u8SetPinValue+0x13a>
     3c2:	88 0f       	add	r24, r24
     3c4:	99 1f       	adc	r25, r25
     3c6:	2a 95       	dec	r18
     3c8:	e2 f7       	brpl	.-8      	; 0x3c2 <MCAL_DIO_u8SetPinValue+0x136>
     3ca:	80 95       	com	r24
     3cc:	48 23       	and	r20, r24
     3ce:	8c 81       	ldd	r24, Y+4	; 0x04
     3d0:	88 2f       	mov	r24, r24
     3d2:	90 e0       	ldi	r25, 0x00	; 0
     3d4:	2b 81       	ldd	r18, Y+3	; 0x03
     3d6:	22 2f       	mov	r18, r18
     3d8:	30 e0       	ldi	r19, 0x00	; 0
     3da:	02 c0       	rjmp	.+4      	; 0x3e0 <MCAL_DIO_u8SetPinValue+0x154>
     3dc:	88 0f       	add	r24, r24
     3de:	99 1f       	adc	r25, r25
     3e0:	2a 95       	dec	r18
     3e2:	e2 f7       	brpl	.-8      	; 0x3dc <MCAL_DIO_u8SetPinValue+0x150>
     3e4:	24 2f       	mov	r18, r20
     3e6:	28 2b       	or	r18, r24
     3e8:	82 e3       	ldi	r24, 0x32	; 50
     3ea:	90 e0       	ldi	r25, 0x00	; 0
     3ec:	fc 01       	movw	r30, r24
     3ee:	20 83       	st	Z, r18
     3f0:	03 c0       	rjmp	.+6      	; 0x3f8 <MCAL_DIO_u8SetPinValue+0x16c>
     3f2:	19 82       	std	Y+1, r1	; 0x01
     3f4:	01 c0       	rjmp	.+2      	; 0x3f8 <MCAL_DIO_u8SetPinValue+0x16c>
     3f6:	19 82       	std	Y+1, r1	; 0x01
     3f8:	89 81       	ldd	r24, Y+1	; 0x01
     3fa:	0f 90       	pop	r0
     3fc:	0f 90       	pop	r0
     3fe:	0f 90       	pop	r0
     400:	0f 90       	pop	r0
     402:	df 91       	pop	r29
     404:	cf 91       	pop	r28
     406:	08 95       	ret

00000408 <MCAL_DIO_u8SetPortValue>:
     408:	cf 93       	push	r28
     40a:	df 93       	push	r29
     40c:	00 d0       	rcall	.+0      	; 0x40e <MCAL_DIO_u8SetPortValue+0x6>
     40e:	0f 92       	push	r0
     410:	cd b7       	in	r28, 0x3d	; 61
     412:	de b7       	in	r29, 0x3e	; 62
     414:	8a 83       	std	Y+2, r24	; 0x02
     416:	6b 83       	std	Y+3, r22	; 0x03
     418:	81 e0       	ldi	r24, 0x01	; 1
     41a:	89 83       	std	Y+1, r24	; 0x01
     41c:	8a 81       	ldd	r24, Y+2	; 0x02
     41e:	88 2f       	mov	r24, r24
     420:	90 e0       	ldi	r25, 0x00	; 0
     422:	83 30       	cpi	r24, 0x03	; 3
     424:	91 05       	cpc	r25, r1
     426:	01 f1       	breq	.+64     	; 0x468 <MCAL_DIO_u8SetPortValue+0x60>
     428:	84 30       	cpi	r24, 0x04	; 4
     42a:	91 05       	cpc	r25, r1
     42c:	1c f5       	brge	.+70     	; 0x474 <MCAL_DIO_u8SetPortValue+0x6c>
     42e:	82 30       	cpi	r24, 0x02	; 2
     430:	91 05       	cpc	r25, r1
     432:	a1 f0       	breq	.+40     	; 0x45c <MCAL_DIO_u8SetPortValue+0x54>
     434:	83 30       	cpi	r24, 0x03	; 3
     436:	91 05       	cpc	r25, r1
     438:	ec f4       	brge	.+58     	; 0x474 <MCAL_DIO_u8SetPortValue+0x6c>
     43a:	00 97       	sbiw	r24, 0x00	; 0
     43c:	19 f0       	breq	.+6      	; 0x444 <MCAL_DIO_u8SetPortValue+0x3c>
     43e:	01 97       	sbiw	r24, 0x01	; 1
     440:	39 f0       	breq	.+14     	; 0x450 <MCAL_DIO_u8SetPortValue+0x48>
     442:	18 c0       	rjmp	.+48     	; 0x474 <MCAL_DIO_u8SetPortValue+0x6c>
     444:	8b e3       	ldi	r24, 0x3B	; 59
     446:	90 e0       	ldi	r25, 0x00	; 0
     448:	2b 81       	ldd	r18, Y+3	; 0x03
     44a:	fc 01       	movw	r30, r24
     44c:	20 83       	st	Z, r18
     44e:	14 c0       	rjmp	.+40     	; 0x478 <MCAL_DIO_u8SetPortValue+0x70>
     450:	88 e3       	ldi	r24, 0x38	; 56
     452:	90 e0       	ldi	r25, 0x00	; 0
     454:	2b 81       	ldd	r18, Y+3	; 0x03
     456:	fc 01       	movw	r30, r24
     458:	20 83       	st	Z, r18
     45a:	0e c0       	rjmp	.+28     	; 0x478 <MCAL_DIO_u8SetPortValue+0x70>
     45c:	85 e3       	ldi	r24, 0x35	; 53
     45e:	90 e0       	ldi	r25, 0x00	; 0
     460:	2b 81       	ldd	r18, Y+3	; 0x03
     462:	fc 01       	movw	r30, r24
     464:	20 83       	st	Z, r18
     466:	08 c0       	rjmp	.+16     	; 0x478 <MCAL_DIO_u8SetPortValue+0x70>
     468:	82 e3       	ldi	r24, 0x32	; 50
     46a:	90 e0       	ldi	r25, 0x00	; 0
     46c:	2b 81       	ldd	r18, Y+3	; 0x03
     46e:	fc 01       	movw	r30, r24
     470:	20 83       	st	Z, r18
     472:	02 c0       	rjmp	.+4      	; 0x478 <MCAL_DIO_u8SetPortValue+0x70>
     474:	19 82       	std	Y+1, r1	; 0x01
     476:	00 00       	nop
     478:	89 81       	ldd	r24, Y+1	; 0x01
     47a:	0f 90       	pop	r0
     47c:	0f 90       	pop	r0
     47e:	0f 90       	pop	r0
     480:	df 91       	pop	r29
     482:	cf 91       	pop	r28
     484:	08 95       	ret

00000486 <MCAL_DIO_u8GetPinValue>:
     486:	cf 93       	push	r28
     488:	df 93       	push	r29
     48a:	00 d0       	rcall	.+0      	; 0x48c <MCAL_DIO_u8GetPinValue+0x6>
     48c:	00 d0       	rcall	.+0      	; 0x48e <MCAL_DIO_u8GetPinValue+0x8>
     48e:	0f 92       	push	r0
     490:	cd b7       	in	r28, 0x3d	; 61
     492:	de b7       	in	r29, 0x3e	; 62
     494:	8a 83       	std	Y+2, r24	; 0x02
     496:	6b 83       	std	Y+3, r22	; 0x03
     498:	5d 83       	std	Y+5, r21	; 0x05
     49a:	4c 83       	std	Y+4, r20	; 0x04
     49c:	81 e0       	ldi	r24, 0x01	; 1
     49e:	89 83       	std	Y+1, r24	; 0x01
     4a0:	8b 81       	ldd	r24, Y+3	; 0x03
     4a2:	88 30       	cpi	r24, 0x08	; 8
     4a4:	08 f0       	brcs	.+2      	; 0x4a8 <MCAL_DIO_u8GetPinValue+0x22>
     4a6:	6d c0       	rjmp	.+218    	; 0x582 <MCAL_DIO_u8GetPinValue+0xfc>
     4a8:	8a 81       	ldd	r24, Y+2	; 0x02
     4aa:	88 2f       	mov	r24, r24
     4ac:	90 e0       	ldi	r25, 0x00	; 0
     4ae:	83 30       	cpi	r24, 0x03	; 3
     4b0:	91 05       	cpc	r25, r1
     4b2:	09 f4       	brne	.+2      	; 0x4b6 <MCAL_DIO_u8GetPinValue+0x30>
     4b4:	4f c0       	rjmp	.+158    	; 0x554 <MCAL_DIO_u8GetPinValue+0xce>
     4b6:	84 30       	cpi	r24, 0x04	; 4
     4b8:	91 05       	cpc	r25, r1
     4ba:	0c f0       	brlt	.+2      	; 0x4be <MCAL_DIO_u8GetPinValue+0x38>
     4bc:	60 c0       	rjmp	.+192    	; 0x57e <MCAL_DIO_u8GetPinValue+0xf8>
     4be:	82 30       	cpi	r24, 0x02	; 2
     4c0:	91 05       	cpc	r25, r1
     4c2:	99 f1       	breq	.+102    	; 0x52a <MCAL_DIO_u8GetPinValue+0xa4>
     4c4:	83 30       	cpi	r24, 0x03	; 3
     4c6:	91 05       	cpc	r25, r1
     4c8:	0c f0       	brlt	.+2      	; 0x4cc <MCAL_DIO_u8GetPinValue+0x46>
     4ca:	59 c0       	rjmp	.+178    	; 0x57e <MCAL_DIO_u8GetPinValue+0xf8>
     4cc:	00 97       	sbiw	r24, 0x00	; 0
     4ce:	19 f0       	breq	.+6      	; 0x4d6 <MCAL_DIO_u8GetPinValue+0x50>
     4d0:	01 97       	sbiw	r24, 0x01	; 1
     4d2:	b1 f0       	breq	.+44     	; 0x500 <MCAL_DIO_u8GetPinValue+0x7a>
     4d4:	54 c0       	rjmp	.+168    	; 0x57e <MCAL_DIO_u8GetPinValue+0xf8>
     4d6:	89 e3       	ldi	r24, 0x39	; 57
     4d8:	90 e0       	ldi	r25, 0x00	; 0
     4da:	fc 01       	movw	r30, r24
     4dc:	80 81       	ld	r24, Z
     4de:	88 2f       	mov	r24, r24
     4e0:	90 e0       	ldi	r25, 0x00	; 0
     4e2:	2b 81       	ldd	r18, Y+3	; 0x03
     4e4:	22 2f       	mov	r18, r18
     4e6:	30 e0       	ldi	r19, 0x00	; 0
     4e8:	02 c0       	rjmp	.+4      	; 0x4ee <MCAL_DIO_u8GetPinValue+0x68>
     4ea:	95 95       	asr	r25
     4ec:	87 95       	ror	r24
     4ee:	2a 95       	dec	r18
     4f0:	e2 f7       	brpl	.-8      	; 0x4ea <MCAL_DIO_u8GetPinValue+0x64>
     4f2:	28 2f       	mov	r18, r24
     4f4:	21 70       	andi	r18, 0x01	; 1
     4f6:	8c 81       	ldd	r24, Y+4	; 0x04
     4f8:	9d 81       	ldd	r25, Y+5	; 0x05
     4fa:	fc 01       	movw	r30, r24
     4fc:	20 83       	st	Z, r18
     4fe:	42 c0       	rjmp	.+132    	; 0x584 <MCAL_DIO_u8GetPinValue+0xfe>
     500:	86 e3       	ldi	r24, 0x36	; 54
     502:	90 e0       	ldi	r25, 0x00	; 0
     504:	fc 01       	movw	r30, r24
     506:	80 81       	ld	r24, Z
     508:	88 2f       	mov	r24, r24
     50a:	90 e0       	ldi	r25, 0x00	; 0
     50c:	2b 81       	ldd	r18, Y+3	; 0x03
     50e:	22 2f       	mov	r18, r18
     510:	30 e0       	ldi	r19, 0x00	; 0
     512:	02 c0       	rjmp	.+4      	; 0x518 <MCAL_DIO_u8GetPinValue+0x92>
     514:	95 95       	asr	r25
     516:	87 95       	ror	r24
     518:	2a 95       	dec	r18
     51a:	e2 f7       	brpl	.-8      	; 0x514 <MCAL_DIO_u8GetPinValue+0x8e>
     51c:	28 2f       	mov	r18, r24
     51e:	21 70       	andi	r18, 0x01	; 1
     520:	8c 81       	ldd	r24, Y+4	; 0x04
     522:	9d 81       	ldd	r25, Y+5	; 0x05
     524:	fc 01       	movw	r30, r24
     526:	20 83       	st	Z, r18
     528:	2d c0       	rjmp	.+90     	; 0x584 <MCAL_DIO_u8GetPinValue+0xfe>
     52a:	83 e3       	ldi	r24, 0x33	; 51
     52c:	90 e0       	ldi	r25, 0x00	; 0
     52e:	fc 01       	movw	r30, r24
     530:	80 81       	ld	r24, Z
     532:	88 2f       	mov	r24, r24
     534:	90 e0       	ldi	r25, 0x00	; 0
     536:	2b 81       	ldd	r18, Y+3	; 0x03
     538:	22 2f       	mov	r18, r18
     53a:	30 e0       	ldi	r19, 0x00	; 0
     53c:	02 c0       	rjmp	.+4      	; 0x542 <MCAL_DIO_u8GetPinValue+0xbc>
     53e:	95 95       	asr	r25
     540:	87 95       	ror	r24
     542:	2a 95       	dec	r18
     544:	e2 f7       	brpl	.-8      	; 0x53e <MCAL_DIO_u8GetPinValue+0xb8>
     546:	28 2f       	mov	r18, r24
     548:	21 70       	andi	r18, 0x01	; 1
     54a:	8c 81       	ldd	r24, Y+4	; 0x04
     54c:	9d 81       	ldd	r25, Y+5	; 0x05
     54e:	fc 01       	movw	r30, r24
     550:	20 83       	st	Z, r18
     552:	18 c0       	rjmp	.+48     	; 0x584 <MCAL_DIO_u8GetPinValue+0xfe>
     554:	80 e3       	ldi	r24, 0x30	; 48
     556:	90 e0       	ldi	r25, 0x00	; 0
     558:	fc 01       	movw	r30, r24
     55a:	80 81       	ld	r24, Z
     55c:	88 2f       	mov	r24, r24
     55e:	90 e0       	ldi	r25, 0x00	; 0
     560:	2b 81       	ldd	r18, Y+3	; 0x03
     562:	22 2f       	mov	r18, r18
     564:	30 e0       	ldi	r19, 0x00	; 0
     566:	02 c0       	rjmp	.+4      	; 0x56c <MCAL_DIO_u8GetPinValue+0xe6>
     568:	95 95       	asr	r25
     56a:	87 95       	ror	r24
     56c:	2a 95       	dec	r18
     56e:	e2 f7       	brpl	.-8      	; 0x568 <MCAL_DIO_u8GetPinValue+0xe2>
     570:	28 2f       	mov	r18, r24
     572:	21 70       	andi	r18, 0x01	; 1
     574:	8c 81       	ldd	r24, Y+4	; 0x04
     576:	9d 81       	ldd	r25, Y+5	; 0x05
     578:	fc 01       	movw	r30, r24
     57a:	20 83       	st	Z, r18
     57c:	03 c0       	rjmp	.+6      	; 0x584 <MCAL_DIO_u8GetPinValue+0xfe>
     57e:	19 82       	std	Y+1, r1	; 0x01
     580:	01 c0       	rjmp	.+2      	; 0x584 <MCAL_DIO_u8GetPinValue+0xfe>
     582:	19 82       	std	Y+1, r1	; 0x01
     584:	89 81       	ldd	r24, Y+1	; 0x01
     586:	0f 90       	pop	r0
     588:	0f 90       	pop	r0
     58a:	0f 90       	pop	r0
     58c:	0f 90       	pop	r0
     58e:	0f 90       	pop	r0
     590:	df 91       	pop	r29
     592:	cf 91       	pop	r28
     594:	08 95       	ret

00000596 <MCAL_DIO_u8GetPortValue>:
     596:	cf 93       	push	r28
     598:	df 93       	push	r29
     59a:	00 d0       	rcall	.+0      	; 0x59c <MCAL_DIO_u8GetPortValue+0x6>
     59c:	00 d0       	rcall	.+0      	; 0x59e <MCAL_DIO_u8GetPortValue+0x8>
     59e:	cd b7       	in	r28, 0x3d	; 61
     5a0:	de b7       	in	r29, 0x3e	; 62
     5a2:	8a 83       	std	Y+2, r24	; 0x02
     5a4:	7c 83       	std	Y+4, r23	; 0x04
     5a6:	6b 83       	std	Y+3, r22	; 0x03
     5a8:	81 e0       	ldi	r24, 0x01	; 1
     5aa:	89 83       	std	Y+1, r24	; 0x01
     5ac:	8a 81       	ldd	r24, Y+2	; 0x02
     5ae:	88 2f       	mov	r24, r24
     5b0:	90 e0       	ldi	r25, 0x00	; 0
     5b2:	83 30       	cpi	r24, 0x03	; 3
     5b4:	91 05       	cpc	r25, r1
     5b6:	49 f1       	breq	.+82     	; 0x60a <MCAL_DIO_u8GetPortValue+0x74>
     5b8:	84 30       	cpi	r24, 0x04	; 4
     5ba:	91 05       	cpc	r25, r1
     5bc:	7c f5       	brge	.+94     	; 0x61c <MCAL_DIO_u8GetPortValue+0x86>
     5be:	82 30       	cpi	r24, 0x02	; 2
     5c0:	91 05       	cpc	r25, r1
     5c2:	d1 f0       	breq	.+52     	; 0x5f8 <MCAL_DIO_u8GetPortValue+0x62>
     5c4:	83 30       	cpi	r24, 0x03	; 3
     5c6:	91 05       	cpc	r25, r1
     5c8:	4c f5       	brge	.+82     	; 0x61c <MCAL_DIO_u8GetPortValue+0x86>
     5ca:	00 97       	sbiw	r24, 0x00	; 0
     5cc:	19 f0       	breq	.+6      	; 0x5d4 <MCAL_DIO_u8GetPortValue+0x3e>
     5ce:	01 97       	sbiw	r24, 0x01	; 1
     5d0:	51 f0       	breq	.+20     	; 0x5e6 <MCAL_DIO_u8GetPortValue+0x50>
     5d2:	24 c0       	rjmp	.+72     	; 0x61c <MCAL_DIO_u8GetPortValue+0x86>
     5d4:	89 e3       	ldi	r24, 0x39	; 57
     5d6:	90 e0       	ldi	r25, 0x00	; 0
     5d8:	fc 01       	movw	r30, r24
     5da:	20 81       	ld	r18, Z
     5dc:	8b 81       	ldd	r24, Y+3	; 0x03
     5de:	9c 81       	ldd	r25, Y+4	; 0x04
     5e0:	fc 01       	movw	r30, r24
     5e2:	20 83       	st	Z, r18
     5e4:	1d c0       	rjmp	.+58     	; 0x620 <MCAL_DIO_u8GetPortValue+0x8a>
     5e6:	86 e3       	ldi	r24, 0x36	; 54
     5e8:	90 e0       	ldi	r25, 0x00	; 0
     5ea:	fc 01       	movw	r30, r24
     5ec:	20 81       	ld	r18, Z
     5ee:	8b 81       	ldd	r24, Y+3	; 0x03
     5f0:	9c 81       	ldd	r25, Y+4	; 0x04
     5f2:	fc 01       	movw	r30, r24
     5f4:	20 83       	st	Z, r18
     5f6:	14 c0       	rjmp	.+40     	; 0x620 <MCAL_DIO_u8GetPortValue+0x8a>
     5f8:	83 e3       	ldi	r24, 0x33	; 51
     5fa:	90 e0       	ldi	r25, 0x00	; 0
     5fc:	fc 01       	movw	r30, r24
     5fe:	20 81       	ld	r18, Z
     600:	8b 81       	ldd	r24, Y+3	; 0x03
     602:	9c 81       	ldd	r25, Y+4	; 0x04
     604:	fc 01       	movw	r30, r24
     606:	20 83       	st	Z, r18
     608:	0b c0       	rjmp	.+22     	; 0x620 <MCAL_DIO_u8GetPortValue+0x8a>
     60a:	80 e3       	ldi	r24, 0x30	; 48
     60c:	90 e0       	ldi	r25, 0x00	; 0
     60e:	fc 01       	movw	r30, r24
     610:	20 81       	ld	r18, Z
     612:	8b 81       	ldd	r24, Y+3	; 0x03
     614:	9c 81       	ldd	r25, Y+4	; 0x04
     616:	fc 01       	movw	r30, r24
     618:	20 83       	st	Z, r18
     61a:	02 c0       	rjmp	.+4      	; 0x620 <MCAL_DIO_u8GetPortValue+0x8a>
     61c:	19 82       	std	Y+1, r1	; 0x01
     61e:	00 00       	nop
     620:	89 81       	ldd	r24, Y+1	; 0x01
     622:	0f 90       	pop	r0
     624:	0f 90       	pop	r0
     626:	0f 90       	pop	r0
     628:	0f 90       	pop	r0
     62a:	df 91       	pop	r29
     62c:	cf 91       	pop	r28
     62e:	08 95       	ret

00000630 <MCAL_DIO_u8SetPinInputType>:
     630:	cf 93       	push	r28
     632:	df 93       	push	r29
     634:	00 d0       	rcall	.+0      	; 0x636 <MCAL_DIO_u8SetPinInputType+0x6>
     636:	00 d0       	rcall	.+0      	; 0x638 <MCAL_DIO_u8SetPinInputType+0x8>
     638:	cd b7       	in	r28, 0x3d	; 61
     63a:	de b7       	in	r29, 0x3e	; 62
     63c:	8a 83       	std	Y+2, r24	; 0x02
     63e:	6b 83       	std	Y+3, r22	; 0x03
     640:	4c 83       	std	Y+4, r20	; 0x04
     642:	81 e0       	ldi	r24, 0x01	; 1
     644:	89 83       	std	Y+1, r24	; 0x01
     646:	8b 81       	ldd	r24, Y+3	; 0x03
     648:	88 30       	cpi	r24, 0x08	; 8
     64a:	08 f0       	brcs	.+2      	; 0x64e <MCAL_DIO_u8SetPinInputType+0x1e>
     64c:	a6 c0       	rjmp	.+332    	; 0x79a <MCAL_DIO_u8SetPinInputType+0x16a>
     64e:	8a 81       	ldd	r24, Y+2	; 0x02
     650:	88 2f       	mov	r24, r24
     652:	90 e0       	ldi	r25, 0x00	; 0
     654:	83 30       	cpi	r24, 0x03	; 3
     656:	91 05       	cpc	r25, r1
     658:	09 f4       	brne	.+2      	; 0x65c <MCAL_DIO_u8SetPinInputType+0x2c>
     65a:	7a c0       	rjmp	.+244    	; 0x750 <MCAL_DIO_u8SetPinInputType+0x120>
     65c:	84 30       	cpi	r24, 0x04	; 4
     65e:	91 05       	cpc	r25, r1
     660:	0c f0       	brlt	.+2      	; 0x664 <MCAL_DIO_u8SetPinInputType+0x34>
     662:	99 c0       	rjmp	.+306    	; 0x796 <MCAL_DIO_u8SetPinInputType+0x166>
     664:	82 30       	cpi	r24, 0x02	; 2
     666:	91 05       	cpc	r25, r1
     668:	09 f4       	brne	.+2      	; 0x66c <MCAL_DIO_u8SetPinInputType+0x3c>
     66a:	4f c0       	rjmp	.+158    	; 0x70a <MCAL_DIO_u8SetPinInputType+0xda>
     66c:	83 30       	cpi	r24, 0x03	; 3
     66e:	91 05       	cpc	r25, r1
     670:	0c f0       	brlt	.+2      	; 0x674 <MCAL_DIO_u8SetPinInputType+0x44>
     672:	91 c0       	rjmp	.+290    	; 0x796 <MCAL_DIO_u8SetPinInputType+0x166>
     674:	00 97       	sbiw	r24, 0x00	; 0
     676:	19 f0       	breq	.+6      	; 0x67e <MCAL_DIO_u8SetPinInputType+0x4e>
     678:	01 97       	sbiw	r24, 0x01	; 1
     67a:	21 f1       	breq	.+72     	; 0x6c4 <MCAL_DIO_u8SetPinInputType+0x94>
     67c:	8c c0       	rjmp	.+280    	; 0x796 <MCAL_DIO_u8SetPinInputType+0x166>
     67e:	8b e3       	ldi	r24, 0x3B	; 59
     680:	90 e0       	ldi	r25, 0x00	; 0
     682:	fc 01       	movw	r30, r24
     684:	80 81       	ld	r24, Z
     686:	48 2f       	mov	r20, r24
     688:	8b 81       	ldd	r24, Y+3	; 0x03
     68a:	28 2f       	mov	r18, r24
     68c:	30 e0       	ldi	r19, 0x00	; 0
     68e:	81 e0       	ldi	r24, 0x01	; 1
     690:	90 e0       	ldi	r25, 0x00	; 0
     692:	02 c0       	rjmp	.+4      	; 0x698 <MCAL_DIO_u8SetPinInputType+0x68>
     694:	88 0f       	add	r24, r24
     696:	99 1f       	adc	r25, r25
     698:	2a 95       	dec	r18
     69a:	e2 f7       	brpl	.-8      	; 0x694 <MCAL_DIO_u8SetPinInputType+0x64>
     69c:	80 95       	com	r24
     69e:	48 23       	and	r20, r24
     6a0:	8c 81       	ldd	r24, Y+4	; 0x04
     6a2:	88 2f       	mov	r24, r24
     6a4:	90 e0       	ldi	r25, 0x00	; 0
     6a6:	2b 81       	ldd	r18, Y+3	; 0x03
     6a8:	22 2f       	mov	r18, r18
     6aa:	30 e0       	ldi	r19, 0x00	; 0
     6ac:	02 c0       	rjmp	.+4      	; 0x6b2 <MCAL_DIO_u8SetPinInputType+0x82>
     6ae:	88 0f       	add	r24, r24
     6b0:	99 1f       	adc	r25, r25
     6b2:	2a 95       	dec	r18
     6b4:	e2 f7       	brpl	.-8      	; 0x6ae <MCAL_DIO_u8SetPinInputType+0x7e>
     6b6:	24 2f       	mov	r18, r20
     6b8:	28 2b       	or	r18, r24
     6ba:	8b e3       	ldi	r24, 0x3B	; 59
     6bc:	90 e0       	ldi	r25, 0x00	; 0
     6be:	fc 01       	movw	r30, r24
     6c0:	20 83       	st	Z, r18
     6c2:	6c c0       	rjmp	.+216    	; 0x79c <MCAL_DIO_u8SetPinInputType+0x16c>
     6c4:	88 e3       	ldi	r24, 0x38	; 56
     6c6:	90 e0       	ldi	r25, 0x00	; 0
     6c8:	fc 01       	movw	r30, r24
     6ca:	80 81       	ld	r24, Z
     6cc:	48 2f       	mov	r20, r24
     6ce:	8b 81       	ldd	r24, Y+3	; 0x03
     6d0:	28 2f       	mov	r18, r24
     6d2:	30 e0       	ldi	r19, 0x00	; 0
     6d4:	81 e0       	ldi	r24, 0x01	; 1
     6d6:	90 e0       	ldi	r25, 0x00	; 0
     6d8:	02 c0       	rjmp	.+4      	; 0x6de <MCAL_DIO_u8SetPinInputType+0xae>
     6da:	88 0f       	add	r24, r24
     6dc:	99 1f       	adc	r25, r25
     6de:	2a 95       	dec	r18
     6e0:	e2 f7       	brpl	.-8      	; 0x6da <MCAL_DIO_u8SetPinInputType+0xaa>
     6e2:	80 95       	com	r24
     6e4:	48 23       	and	r20, r24
     6e6:	8c 81       	ldd	r24, Y+4	; 0x04
     6e8:	88 2f       	mov	r24, r24
     6ea:	90 e0       	ldi	r25, 0x00	; 0
     6ec:	2b 81       	ldd	r18, Y+3	; 0x03
     6ee:	22 2f       	mov	r18, r18
     6f0:	30 e0       	ldi	r19, 0x00	; 0
     6f2:	02 c0       	rjmp	.+4      	; 0x6f8 <MCAL_DIO_u8SetPinInputType+0xc8>
     6f4:	88 0f       	add	r24, r24
     6f6:	99 1f       	adc	r25, r25
     6f8:	2a 95       	dec	r18
     6fa:	e2 f7       	brpl	.-8      	; 0x6f4 <MCAL_DIO_u8SetPinInputType+0xc4>
     6fc:	24 2f       	mov	r18, r20
     6fe:	28 2b       	or	r18, r24
     700:	88 e3       	ldi	r24, 0x38	; 56
     702:	90 e0       	ldi	r25, 0x00	; 0
     704:	fc 01       	movw	r30, r24
     706:	20 83       	st	Z, r18
     708:	49 c0       	rjmp	.+146    	; 0x79c <MCAL_DIO_u8SetPinInputType+0x16c>
     70a:	85 e3       	ldi	r24, 0x35	; 53
     70c:	90 e0       	ldi	r25, 0x00	; 0
     70e:	fc 01       	movw	r30, r24
     710:	80 81       	ld	r24, Z
     712:	48 2f       	mov	r20, r24
     714:	8b 81       	ldd	r24, Y+3	; 0x03
     716:	28 2f       	mov	r18, r24
     718:	30 e0       	ldi	r19, 0x00	; 0
     71a:	81 e0       	ldi	r24, 0x01	; 1
     71c:	90 e0       	ldi	r25, 0x00	; 0
     71e:	02 c0       	rjmp	.+4      	; 0x724 <MCAL_DIO_u8SetPinInputType+0xf4>
     720:	88 0f       	add	r24, r24
     722:	99 1f       	adc	r25, r25
     724:	2a 95       	dec	r18
     726:	e2 f7       	brpl	.-8      	; 0x720 <MCAL_DIO_u8SetPinInputType+0xf0>
     728:	80 95       	com	r24
     72a:	48 23       	and	r20, r24
     72c:	8c 81       	ldd	r24, Y+4	; 0x04
     72e:	88 2f       	mov	r24, r24
     730:	90 e0       	ldi	r25, 0x00	; 0
     732:	2b 81       	ldd	r18, Y+3	; 0x03
     734:	22 2f       	mov	r18, r18
     736:	30 e0       	ldi	r19, 0x00	; 0
     738:	02 c0       	rjmp	.+4      	; 0x73e <MCAL_DIO_u8SetPinInputType+0x10e>
     73a:	88 0f       	add	r24, r24
     73c:	99 1f       	adc	r25, r25
     73e:	2a 95       	dec	r18
     740:	e2 f7       	brpl	.-8      	; 0x73a <MCAL_DIO_u8SetPinInputType+0x10a>
     742:	24 2f       	mov	r18, r20
     744:	28 2b       	or	r18, r24
     746:	85 e3       	ldi	r24, 0x35	; 53
     748:	90 e0       	ldi	r25, 0x00	; 0
     74a:	fc 01       	movw	r30, r24
     74c:	20 83       	st	Z, r18
     74e:	26 c0       	rjmp	.+76     	; 0x79c <MCAL_DIO_u8SetPinInputType+0x16c>
     750:	82 e3       	ldi	r24, 0x32	; 50
     752:	90 e0       	ldi	r25, 0x00	; 0
     754:	fc 01       	movw	r30, r24
     756:	80 81       	ld	r24, Z
     758:	48 2f       	mov	r20, r24
     75a:	8b 81       	ldd	r24, Y+3	; 0x03
     75c:	28 2f       	mov	r18, r24
     75e:	30 e0       	ldi	r19, 0x00	; 0
     760:	81 e0       	ldi	r24, 0x01	; 1
     762:	90 e0       	ldi	r25, 0x00	; 0
     764:	02 c0       	rjmp	.+4      	; 0x76a <MCAL_DIO_u8SetPinInputType+0x13a>
     766:	88 0f       	add	r24, r24
     768:	99 1f       	adc	r25, r25
     76a:	2a 95       	dec	r18
     76c:	e2 f7       	brpl	.-8      	; 0x766 <MCAL_DIO_u8SetPinInputType+0x136>
     76e:	80 95       	com	r24
     770:	48 23       	and	r20, r24
     772:	8c 81       	ldd	r24, Y+4	; 0x04
     774:	88 2f       	mov	r24, r24
     776:	90 e0       	ldi	r25, 0x00	; 0
     778:	2b 81       	ldd	r18, Y+3	; 0x03
     77a:	22 2f       	mov	r18, r18
     77c:	30 e0       	ldi	r19, 0x00	; 0
     77e:	02 c0       	rjmp	.+4      	; 0x784 <MCAL_DIO_u8SetPinInputType+0x154>
     780:	88 0f       	add	r24, r24
     782:	99 1f       	adc	r25, r25
     784:	2a 95       	dec	r18
     786:	e2 f7       	brpl	.-8      	; 0x780 <MCAL_DIO_u8SetPinInputType+0x150>
     788:	24 2f       	mov	r18, r20
     78a:	28 2b       	or	r18, r24
     78c:	82 e3       	ldi	r24, 0x32	; 50
     78e:	90 e0       	ldi	r25, 0x00	; 0
     790:	fc 01       	movw	r30, r24
     792:	20 83       	st	Z, r18
     794:	03 c0       	rjmp	.+6      	; 0x79c <MCAL_DIO_u8SetPinInputType+0x16c>
     796:	19 82       	std	Y+1, r1	; 0x01
     798:	01 c0       	rjmp	.+2      	; 0x79c <MCAL_DIO_u8SetPinInputType+0x16c>
     79a:	19 82       	std	Y+1, r1	; 0x01
     79c:	89 81       	ldd	r24, Y+1	; 0x01
     79e:	0f 90       	pop	r0
     7a0:	0f 90       	pop	r0
     7a2:	0f 90       	pop	r0
     7a4:	0f 90       	pop	r0
     7a6:	df 91       	pop	r29
     7a8:	cf 91       	pop	r28
     7aa:	08 95       	ret

000007ac <MCAL_DIO_u8SetPortInputType>:
     7ac:	cf 93       	push	r28
     7ae:	df 93       	push	r29
     7b0:	00 d0       	rcall	.+0      	; 0x7b2 <MCAL_DIO_u8SetPortInputType+0x6>
     7b2:	0f 92       	push	r0
     7b4:	cd b7       	in	r28, 0x3d	; 61
     7b6:	de b7       	in	r29, 0x3e	; 62
     7b8:	8a 83       	std	Y+2, r24	; 0x02
     7ba:	6b 83       	std	Y+3, r22	; 0x03
     7bc:	81 e0       	ldi	r24, 0x01	; 1
     7be:	89 83       	std	Y+1, r24	; 0x01
     7c0:	8a 81       	ldd	r24, Y+2	; 0x02
     7c2:	88 2f       	mov	r24, r24
     7c4:	90 e0       	ldi	r25, 0x00	; 0
     7c6:	83 30       	cpi	r24, 0x03	; 3
     7c8:	91 05       	cpc	r25, r1
     7ca:	01 f1       	breq	.+64     	; 0x80c <MCAL_DIO_u8SetPortInputType+0x60>
     7cc:	84 30       	cpi	r24, 0x04	; 4
     7ce:	91 05       	cpc	r25, r1
     7d0:	1c f5       	brge	.+70     	; 0x818 <MCAL_DIO_u8SetPortInputType+0x6c>
     7d2:	82 30       	cpi	r24, 0x02	; 2
     7d4:	91 05       	cpc	r25, r1
     7d6:	a1 f0       	breq	.+40     	; 0x800 <MCAL_DIO_u8SetPortInputType+0x54>
     7d8:	83 30       	cpi	r24, 0x03	; 3
     7da:	91 05       	cpc	r25, r1
     7dc:	ec f4       	brge	.+58     	; 0x818 <MCAL_DIO_u8SetPortInputType+0x6c>
     7de:	00 97       	sbiw	r24, 0x00	; 0
     7e0:	19 f0       	breq	.+6      	; 0x7e8 <MCAL_DIO_u8SetPortInputType+0x3c>
     7e2:	01 97       	sbiw	r24, 0x01	; 1
     7e4:	39 f0       	breq	.+14     	; 0x7f4 <MCAL_DIO_u8SetPortInputType+0x48>
     7e6:	18 c0       	rjmp	.+48     	; 0x818 <MCAL_DIO_u8SetPortInputType+0x6c>
     7e8:	8b e3       	ldi	r24, 0x3B	; 59
     7ea:	90 e0       	ldi	r25, 0x00	; 0
     7ec:	2b 81       	ldd	r18, Y+3	; 0x03
     7ee:	fc 01       	movw	r30, r24
     7f0:	20 83       	st	Z, r18
     7f2:	14 c0       	rjmp	.+40     	; 0x81c <MCAL_DIO_u8SetPortInputType+0x70>
     7f4:	88 e3       	ldi	r24, 0x38	; 56
     7f6:	90 e0       	ldi	r25, 0x00	; 0
     7f8:	2b 81       	ldd	r18, Y+3	; 0x03
     7fa:	fc 01       	movw	r30, r24
     7fc:	20 83       	st	Z, r18
     7fe:	0e c0       	rjmp	.+28     	; 0x81c <MCAL_DIO_u8SetPortInputType+0x70>
     800:	85 e3       	ldi	r24, 0x35	; 53
     802:	90 e0       	ldi	r25, 0x00	; 0
     804:	2b 81       	ldd	r18, Y+3	; 0x03
     806:	fc 01       	movw	r30, r24
     808:	20 83       	st	Z, r18
     80a:	08 c0       	rjmp	.+16     	; 0x81c <MCAL_DIO_u8SetPortInputType+0x70>
     80c:	82 e3       	ldi	r24, 0x32	; 50
     80e:	90 e0       	ldi	r25, 0x00	; 0
     810:	2b 81       	ldd	r18, Y+3	; 0x03
     812:	fc 01       	movw	r30, r24
     814:	20 83       	st	Z, r18
     816:	02 c0       	rjmp	.+4      	; 0x81c <MCAL_DIO_u8SetPortInputType+0x70>
     818:	19 82       	std	Y+1, r1	; 0x01
     81a:	00 00       	nop
     81c:	89 81       	ldd	r24, Y+1	; 0x01
     81e:	0f 90       	pop	r0
     820:	0f 90       	pop	r0
     822:	0f 90       	pop	r0
     824:	df 91       	pop	r29
     826:	cf 91       	pop	r28
     828:	08 95       	ret

0000082a <HAL_LCD_voidWriteCharacter>:
     82a:	cf 93       	push	r28
     82c:	df 93       	push	r29
     82e:	0f 92       	push	r0
     830:	cd b7       	in	r28, 0x3d	; 61
     832:	de b7       	in	r29, 0x3e	; 62
     834:	89 83       	std	Y+1, r24	; 0x01
     836:	89 81       	ldd	r24, Y+1	; 0x01
     838:	0e 94 aa 07 	call	0xf54	; 0xf54 <HAL_LCD_voidWriteData>
     83c:	00 00       	nop
     83e:	0f 90       	pop	r0
     840:	df 91       	pop	r29
     842:	cf 91       	pop	r28
     844:	08 95       	ret

00000846 <HAL_LCD_voidWriteString>:
     846:	cf 93       	push	r28
     848:	df 93       	push	r29
     84a:	00 d0       	rcall	.+0      	; 0x84c <HAL_LCD_voidWriteString+0x6>
     84c:	0f 92       	push	r0
     84e:	cd b7       	in	r28, 0x3d	; 61
     850:	de b7       	in	r29, 0x3e	; 62
     852:	9b 83       	std	Y+3, r25	; 0x03
     854:	8a 83       	std	Y+2, r24	; 0x02
     856:	19 82       	std	Y+1, r1	; 0x01
     858:	0e c0       	rjmp	.+28     	; 0x876 <__stack+0x17>
     85a:	89 81       	ldd	r24, Y+1	; 0x01
     85c:	88 2f       	mov	r24, r24
     85e:	90 e0       	ldi	r25, 0x00	; 0
     860:	2a 81       	ldd	r18, Y+2	; 0x02
     862:	3b 81       	ldd	r19, Y+3	; 0x03
     864:	82 0f       	add	r24, r18
     866:	93 1f       	adc	r25, r19
     868:	fc 01       	movw	r30, r24
     86a:	80 81       	ld	r24, Z
     86c:	0e 94 aa 07 	call	0xf54	; 0xf54 <HAL_LCD_voidWriteData>
     870:	89 81       	ldd	r24, Y+1	; 0x01
     872:	8f 5f       	subi	r24, 0xFF	; 255
     874:	89 83       	std	Y+1, r24	; 0x01
     876:	89 81       	ldd	r24, Y+1	; 0x01
     878:	88 2f       	mov	r24, r24
     87a:	90 e0       	ldi	r25, 0x00	; 0
     87c:	2a 81       	ldd	r18, Y+2	; 0x02
     87e:	3b 81       	ldd	r19, Y+3	; 0x03
     880:	82 0f       	add	r24, r18
     882:	93 1f       	adc	r25, r19
     884:	fc 01       	movw	r30, r24
     886:	80 81       	ld	r24, Z
     888:	88 23       	and	r24, r24
     88a:	39 f7       	brne	.-50     	; 0x85a <HAL_LCD_voidWriteString+0x14>
     88c:	00 00       	nop
     88e:	00 00       	nop
     890:	0f 90       	pop	r0
     892:	0f 90       	pop	r0
     894:	0f 90       	pop	r0
     896:	df 91       	pop	r29
     898:	cf 91       	pop	r28
     89a:	08 95       	ret

0000089c <HAL_LCD_MoveCursor>:
     89c:	cf 93       	push	r28
     89e:	df 93       	push	r29
     8a0:	00 d0       	rcall	.+0      	; 0x8a2 <HAL_LCD_MoveCursor+0x6>
     8a2:	cd b7       	in	r28, 0x3d	; 61
     8a4:	de b7       	in	r29, 0x3e	; 62
     8a6:	89 83       	std	Y+1, r24	; 0x01
     8a8:	6a 83       	std	Y+2, r22	; 0x02
     8aa:	89 81       	ldd	r24, Y+1	; 0x01
     8ac:	8e 5f       	subi	r24, 0xFE	; 254
     8ae:	98 2f       	mov	r25, r24
     8b0:	92 95       	swap	r25
     8b2:	99 0f       	add	r25, r25
     8b4:	99 0f       	add	r25, r25
     8b6:	90 7c       	andi	r25, 0xC0	; 192
     8b8:	8a 81       	ldd	r24, Y+2	; 0x02
     8ba:	89 0f       	add	r24, r25
     8bc:	0e 94 6a 05 	call	0xad4	; 0xad4 <HAL_LCD_voidWriteCommand>
     8c0:	00 00       	nop
     8c2:	0f 90       	pop	r0
     8c4:	0f 90       	pop	r0
     8c6:	df 91       	pop	r29
     8c8:	cf 91       	pop	r28
     8ca:	08 95       	ret

000008cc <HAL_LCD_voidClearAll>:
     8cc:	cf 93       	push	r28
     8ce:	df 93       	push	r29
     8d0:	cd b7       	in	r28, 0x3d	; 61
     8d2:	de b7       	in	r29, 0x3e	; 62
     8d4:	81 e0       	ldi	r24, 0x01	; 1
     8d6:	0e 94 6a 05 	call	0xad4	; 0xad4 <HAL_LCD_voidWriteCommand>
     8da:	00 00       	nop
     8dc:	df 91       	pop	r29
     8de:	cf 91       	pop	r28
     8e0:	08 95       	ret

000008e2 <HAL_LCD_voidClearPart>:
     8e2:	cf 93       	push	r28
     8e4:	df 93       	push	r29
     8e6:	00 d0       	rcall	.+0      	; 0x8e8 <HAL_LCD_voidClearPart+0x6>
     8e8:	00 d0       	rcall	.+0      	; 0x8ea <HAL_LCD_voidClearPart+0x8>
     8ea:	cd b7       	in	r28, 0x3d	; 61
     8ec:	de b7       	in	r29, 0x3e	; 62
     8ee:	8a 83       	std	Y+2, r24	; 0x02
     8f0:	6b 83       	std	Y+3, r22	; 0x03
     8f2:	4c 83       	std	Y+4, r20	; 0x04
     8f4:	19 82       	std	Y+1, r1	; 0x01
     8f6:	6b 81       	ldd	r22, Y+3	; 0x03
     8f8:	8a 81       	ldd	r24, Y+2	; 0x02
     8fa:	0e 94 4e 04 	call	0x89c	; 0x89c <HAL_LCD_MoveCursor>
     8fe:	8b 81       	ldd	r24, Y+3	; 0x03
     900:	89 83       	std	Y+1, r24	; 0x01
     902:	06 c0       	rjmp	.+12     	; 0x910 <HAL_LCD_voidClearPart+0x2e>
     904:	80 e2       	ldi	r24, 0x20	; 32
     906:	0e 94 aa 07 	call	0xf54	; 0xf54 <HAL_LCD_voidWriteData>
     90a:	89 81       	ldd	r24, Y+1	; 0x01
     90c:	8f 5f       	subi	r24, 0xFF	; 255
     90e:	89 83       	std	Y+1, r24	; 0x01
     910:	99 81       	ldd	r25, Y+1	; 0x01
     912:	8c 81       	ldd	r24, Y+4	; 0x04
     914:	89 17       	cp	r24, r25
     916:	b0 f7       	brcc	.-20     	; 0x904 <HAL_LCD_voidClearPart+0x22>
     918:	00 00       	nop
     91a:	00 00       	nop
     91c:	0f 90       	pop	r0
     91e:	0f 90       	pop	r0
     920:	0f 90       	pop	r0
     922:	0f 90       	pop	r0
     924:	df 91       	pop	r29
     926:	cf 91       	pop	r28
     928:	08 95       	ret

0000092a <HAL_LCD_voidDisplaySetup>:
     92a:	cf 93       	push	r28
     92c:	df 93       	push	r29
     92e:	0f 92       	push	r0
     930:	cd b7       	in	r28, 0x3d	; 61
     932:	de b7       	in	r29, 0x3e	; 62
     934:	89 83       	std	Y+1, r24	; 0x01
     936:	89 81       	ldd	r24, Y+1	; 0x01
     938:	81 30       	cpi	r24, 0x01	; 1
     93a:	21 f4       	brne	.+8      	; 0x944 <HAL_LCD_voidDisplaySetup+0x1a>
     93c:	8f e0       	ldi	r24, 0x0F	; 15
     93e:	0e 94 6a 05 	call	0xad4	; 0xad4 <HAL_LCD_voidWriteCommand>
     942:	06 c0       	rjmp	.+12     	; 0x950 <HAL_LCD_voidDisplaySetup+0x26>
     944:	89 81       	ldd	r24, Y+1	; 0x01
     946:	88 23       	and	r24, r24
     948:	19 f4       	brne	.+6      	; 0x950 <HAL_LCD_voidDisplaySetup+0x26>
     94a:	8b e0       	ldi	r24, 0x0B	; 11
     94c:	0e 94 6a 05 	call	0xad4	; 0xad4 <HAL_LCD_voidWriteCommand>
     950:	00 00       	nop
     952:	0f 90       	pop	r0
     954:	df 91       	pop	r29
     956:	cf 91       	pop	r28
     958:	08 95       	ret

0000095a <HAL_LCD_voidWriteNumber>:
     95a:	cf 93       	push	r28
     95c:	df 93       	push	r29
     95e:	cd b7       	in	r28, 0x3d	; 61
     960:	de b7       	in	r29, 0x3e	; 62
     962:	63 97       	sbiw	r28, 0x13	; 19
     964:	0f b6       	in	r0, 0x3f	; 63
     966:	f8 94       	cli
     968:	de bf       	out	0x3e, r29	; 62
     96a:	0f be       	out	0x3f, r0	; 63
     96c:	cd bf       	out	0x3d, r28	; 61
     96e:	68 8b       	std	Y+16, r22	; 0x10
     970:	79 8b       	std	Y+17, r23	; 0x11
     972:	8a 8b       	std	Y+18, r24	; 0x12
     974:	9b 8b       	std	Y+19, r25	; 0x13
     976:	81 e0       	ldi	r24, 0x01	; 1
     978:	89 83       	std	Y+1, r24	; 0x01
     97a:	1a 82       	std	Y+2, r1	; 0x02
     97c:	88 89       	ldd	r24, Y+16	; 0x10
     97e:	99 89       	ldd	r25, Y+17	; 0x11
     980:	9c 83       	std	Y+4, r25	; 0x04
     982:	8b 83       	std	Y+3, r24	; 0x03
     984:	12 c0       	rjmp	.+36     	; 0x9aa <HAL_LCD_voidWriteNumber+0x50>
     986:	89 81       	ldd	r24, Y+1	; 0x01
     988:	8f 5f       	subi	r24, 0xFF	; 255
     98a:	89 83       	std	Y+1, r24	; 0x01
     98c:	8b 81       	ldd	r24, Y+3	; 0x03
     98e:	9c 81       	ldd	r25, Y+4	; 0x04
     990:	9c 01       	movw	r18, r24
     992:	ad ec       	ldi	r26, 0xCD	; 205
     994:	bc ec       	ldi	r27, 0xCC	; 204
     996:	0e 94 bb 16 	call	0x2d76	; 0x2d76 <__umulhisi3>
     99a:	96 95       	lsr	r25
     99c:	87 95       	ror	r24
     99e:	96 95       	lsr	r25
     9a0:	87 95       	ror	r24
     9a2:	96 95       	lsr	r25
     9a4:	87 95       	ror	r24
     9a6:	9c 83       	std	Y+4, r25	; 0x04
     9a8:	8b 83       	std	Y+3, r24	; 0x03
     9aa:	8b 81       	ldd	r24, Y+3	; 0x03
     9ac:	9c 81       	ldd	r25, Y+4	; 0x04
     9ae:	0a 97       	sbiw	r24, 0x0a	; 10
     9b0:	50 f7       	brcc	.-44     	; 0x986 <HAL_LCD_voidWriteNumber+0x2c>
     9b2:	88 89       	ldd	r24, Y+16	; 0x10
     9b4:	99 89       	ldd	r25, Y+17	; 0x11
     9b6:	9c 83       	std	Y+4, r25	; 0x04
     9b8:	8b 83       	std	Y+3, r24	; 0x03
     9ba:	89 81       	ldd	r24, Y+1	; 0x01
     9bc:	8d 83       	std	Y+5, r24	; 0x05
     9be:	38 c0       	rjmp	.+112    	; 0xa30 <HAL_LCD_voidWriteNumber+0xd6>
     9c0:	4b 81       	ldd	r20, Y+3	; 0x03
     9c2:	5c 81       	ldd	r21, Y+4	; 0x04
     9c4:	9a 01       	movw	r18, r20
     9c6:	ad ec       	ldi	r26, 0xCD	; 205
     9c8:	bc ec       	ldi	r27, 0xCC	; 204
     9ca:	0e 94 bb 16 	call	0x2d76	; 0x2d76 <__umulhisi3>
     9ce:	9c 01       	movw	r18, r24
     9d0:	36 95       	lsr	r19
     9d2:	27 95       	ror	r18
     9d4:	36 95       	lsr	r19
     9d6:	27 95       	ror	r18
     9d8:	36 95       	lsr	r19
     9da:	27 95       	ror	r18
     9dc:	c9 01       	movw	r24, r18
     9de:	88 0f       	add	r24, r24
     9e0:	99 1f       	adc	r25, r25
     9e2:	88 0f       	add	r24, r24
     9e4:	99 1f       	adc	r25, r25
     9e6:	82 0f       	add	r24, r18
     9e8:	93 1f       	adc	r25, r19
     9ea:	88 0f       	add	r24, r24
     9ec:	99 1f       	adc	r25, r25
     9ee:	9a 01       	movw	r18, r20
     9f0:	28 1b       	sub	r18, r24
     9f2:	39 0b       	sbc	r19, r25
     9f4:	89 81       	ldd	r24, Y+1	; 0x01
     9f6:	88 2f       	mov	r24, r24
     9f8:	90 e0       	ldi	r25, 0x00	; 0
     9fa:	01 97       	sbiw	r24, 0x01	; 1
     9fc:	42 2f       	mov	r20, r18
     9fe:	9e 01       	movw	r18, r28
     a00:	2a 5f       	subi	r18, 0xFA	; 250
     a02:	3f 4f       	sbci	r19, 0xFF	; 255
     a04:	82 0f       	add	r24, r18
     a06:	93 1f       	adc	r25, r19
     a08:	fc 01       	movw	r30, r24
     a0a:	40 83       	st	Z, r20
     a0c:	8b 81       	ldd	r24, Y+3	; 0x03
     a0e:	9c 81       	ldd	r25, Y+4	; 0x04
     a10:	9c 01       	movw	r18, r24
     a12:	ad ec       	ldi	r26, 0xCD	; 205
     a14:	bc ec       	ldi	r27, 0xCC	; 204
     a16:	0e 94 bb 16 	call	0x2d76	; 0x2d76 <__umulhisi3>
     a1a:	96 95       	lsr	r25
     a1c:	87 95       	ror	r24
     a1e:	96 95       	lsr	r25
     a20:	87 95       	ror	r24
     a22:	96 95       	lsr	r25
     a24:	87 95       	ror	r24
     a26:	9c 83       	std	Y+4, r25	; 0x04
     a28:	8b 83       	std	Y+3, r24	; 0x03
     a2a:	89 81       	ldd	r24, Y+1	; 0x01
     a2c:	81 50       	subi	r24, 0x01	; 1
     a2e:	89 83       	std	Y+1, r24	; 0x01
     a30:	89 81       	ldd	r24, Y+1	; 0x01
     a32:	88 23       	and	r24, r24
     a34:	29 f6       	brne	.-118    	; 0x9c0 <HAL_LCD_voidWriteNumber+0x66>
     a36:	1a 82       	std	Y+2, r1	; 0x02
     a38:	10 c0       	rjmp	.+32     	; 0xa5a <HAL_LCD_voidWriteNumber+0x100>
     a3a:	8a 81       	ldd	r24, Y+2	; 0x02
     a3c:	88 2f       	mov	r24, r24
     a3e:	90 e0       	ldi	r25, 0x00	; 0
     a40:	9e 01       	movw	r18, r28
     a42:	2a 5f       	subi	r18, 0xFA	; 250
     a44:	3f 4f       	sbci	r19, 0xFF	; 255
     a46:	82 0f       	add	r24, r18
     a48:	93 1f       	adc	r25, r19
     a4a:	fc 01       	movw	r30, r24
     a4c:	80 81       	ld	r24, Z
     a4e:	80 5d       	subi	r24, 0xD0	; 208
     a50:	0e 94 aa 07 	call	0xf54	; 0xf54 <HAL_LCD_voidWriteData>
     a54:	8a 81       	ldd	r24, Y+2	; 0x02
     a56:	8f 5f       	subi	r24, 0xFF	; 255
     a58:	8a 83       	std	Y+2, r24	; 0x02
     a5a:	9a 81       	ldd	r25, Y+2	; 0x02
     a5c:	8d 81       	ldd	r24, Y+5	; 0x05
     a5e:	98 17       	cp	r25, r24
     a60:	60 f3       	brcs	.-40     	; 0xa3a <HAL_LCD_voidWriteNumber+0xe0>
     a62:	00 00       	nop
     a64:	00 00       	nop
     a66:	63 96       	adiw	r28, 0x13	; 19
     a68:	0f b6       	in	r0, 0x3f	; 63
     a6a:	f8 94       	cli
     a6c:	de bf       	out	0x3e, r29	; 62
     a6e:	0f be       	out	0x3f, r0	; 63
     a70:	cd bf       	out	0x3d, r28	; 61
     a72:	df 91       	pop	r29
     a74:	cf 91       	pop	r28
     a76:	08 95       	ret

00000a78 <HAL_LCD_SpecialChar>:
     a78:	cf 93       	push	r28
     a7a:	df 93       	push	r29
     a7c:	00 d0       	rcall	.+0      	; 0xa7e <HAL_LCD_SpecialChar+0x6>
     a7e:	00 d0       	rcall	.+0      	; 0xa80 <HAL_LCD_SpecialChar+0x8>
     a80:	0f 92       	push	r0
     a82:	cd b7       	in	r28, 0x3d	; 61
     a84:	de b7       	in	r29, 0x3e	; 62
     a86:	9b 83       	std	Y+3, r25	; 0x03
     a88:	8a 83       	std	Y+2, r24	; 0x02
     a8a:	6c 83       	std	Y+4, r22	; 0x04
     a8c:	4d 83       	std	Y+5, r20	; 0x05
     a8e:	80 e4       	ldi	r24, 0x40	; 64
     a90:	0e 94 6a 05 	call	0xad4	; 0xad4 <HAL_LCD_voidWriteCommand>
     a94:	19 82       	std	Y+1, r1	; 0x01
     a96:	0e c0       	rjmp	.+28     	; 0xab4 <HAL_LCD_SpecialChar+0x3c>
     a98:	89 81       	ldd	r24, Y+1	; 0x01
     a9a:	88 2f       	mov	r24, r24
     a9c:	90 e0       	ldi	r25, 0x00	; 0
     a9e:	2a 81       	ldd	r18, Y+2	; 0x02
     aa0:	3b 81       	ldd	r19, Y+3	; 0x03
     aa2:	82 0f       	add	r24, r18
     aa4:	93 1f       	adc	r25, r19
     aa6:	fc 01       	movw	r30, r24
     aa8:	80 81       	ld	r24, Z
     aaa:	0e 94 aa 07 	call	0xf54	; 0xf54 <HAL_LCD_voidWriteData>
     aae:	89 81       	ldd	r24, Y+1	; 0x01
     ab0:	8f 5f       	subi	r24, 0xFF	; 255
     ab2:	89 83       	std	Y+1, r24	; 0x01
     ab4:	89 81       	ldd	r24, Y+1	; 0x01
     ab6:	88 30       	cpi	r24, 0x08	; 8
     ab8:	78 f3       	brcs	.-34     	; 0xa98 <HAL_LCD_SpecialChar+0x20>
     aba:	6d 81       	ldd	r22, Y+5	; 0x05
     abc:	8c 81       	ldd	r24, Y+4	; 0x04
     abe:	0e 94 4e 04 	call	0x89c	; 0x89c <HAL_LCD_MoveCursor>
     ac2:	00 00       	nop
     ac4:	0f 90       	pop	r0
     ac6:	0f 90       	pop	r0
     ac8:	0f 90       	pop	r0
     aca:	0f 90       	pop	r0
     acc:	0f 90       	pop	r0
     ace:	df 91       	pop	r29
     ad0:	cf 91       	pop	r28
     ad2:	08 95       	ret

00000ad4 <HAL_LCD_voidWriteCommand>:
     ad4:	cf 93       	push	r28
     ad6:	df 93       	push	r29
     ad8:	cd b7       	in	r28, 0x3d	; 61
     ada:	de b7       	in	r29, 0x3e	; 62
     adc:	c7 56       	subi	r28, 0x67	; 103
     ade:	d1 09       	sbc	r29, r1
     ae0:	0f b6       	in	r0, 0x3f	; 63
     ae2:	f8 94       	cli
     ae4:	de bf       	out	0x3e, r29	; 62
     ae6:	0f be       	out	0x3f, r0	; 63
     ae8:	cd bf       	out	0x3d, r28	; 61
     aea:	8b a7       	std	Y+43, r24	; 0x2b
     aec:	40 e0       	ldi	r20, 0x00	; 0
     aee:	63 e0       	ldi	r22, 0x03	; 3
     af0:	82 e0       	ldi	r24, 0x02	; 2
     af2:	0e 94 46 01 	call	0x28c	; 0x28c <MCAL_DIO_u8SetPinValue>
     af6:	40 e0       	ldi	r20, 0x00	; 0
     af8:	61 e0       	ldi	r22, 0x01	; 1
     afa:	82 e0       	ldi	r24, 0x02	; 2
     afc:	0e 94 46 01 	call	0x28c	; 0x28c <MCAL_DIO_u8SetPinValue>
     b00:	40 e0       	ldi	r20, 0x00	; 0
     b02:	62 e0       	ldi	r22, 0x02	; 2
     b04:	82 e0       	ldi	r24, 0x02	; 2
     b06:	0e 94 46 01 	call	0x28c	; 0x28c <MCAL_DIO_u8SetPinValue>
     b0a:	85 e3       	ldi	r24, 0x35	; 53
     b0c:	90 e0       	ldi	r25, 0x00	; 0
     b0e:	dc 01       	movw	r26, r24
     b10:	8c 91       	ld	r24, X
     b12:	98 2f       	mov	r25, r24
     b14:	9f 70       	andi	r25, 0x0F	; 15
     b16:	8b a5       	ldd	r24, Y+43	; 0x2b
     b18:	80 7f       	andi	r24, 0xF0	; 240
     b1a:	29 2f       	mov	r18, r25
     b1c:	28 2b       	or	r18, r24
     b1e:	85 e3       	ldi	r24, 0x35	; 53
     b20:	90 e0       	ldi	r25, 0x00	; 0
     b22:	fc 01       	movw	r30, r24
     b24:	20 83       	st	Z, r18
     b26:	41 e0       	ldi	r20, 0x01	; 1
     b28:	63 e0       	ldi	r22, 0x03	; 3
     b2a:	82 e0       	ldi	r24, 0x02	; 2
     b2c:	0e 94 46 01 	call	0x28c	; 0x28c <MCAL_DIO_u8SetPinValue>
     b30:	80 e0       	ldi	r24, 0x00	; 0
     b32:	90 e0       	ldi	r25, 0x00	; 0
     b34:	a0 e0       	ldi	r26, 0x00	; 0
     b36:	b0 e4       	ldi	r27, 0x40	; 64
     b38:	8d 8f       	std	Y+29, r24	; 0x1d
     b3a:	9e 8f       	std	Y+30, r25	; 0x1e
     b3c:	af 8f       	std	Y+31, r26	; 0x1f
     b3e:	b8 a3       	std	Y+32, r27	; 0x20
     b40:	20 e0       	ldi	r18, 0x00	; 0
     b42:	30 e0       	ldi	r19, 0x00	; 0
     b44:	4a ef       	ldi	r20, 0xFA	; 250
     b46:	54 e4       	ldi	r21, 0x44	; 68
     b48:	6d 8d       	ldd	r22, Y+29	; 0x1d
     b4a:	7e 8d       	ldd	r23, Y+30	; 0x1e
     b4c:	8f 8d       	ldd	r24, Y+31	; 0x1f
     b4e:	98 a1       	ldd	r25, Y+32	; 0x20
     b50:	0e 94 50 17 	call	0x2ea0	; 0x2ea0 <__mulsf3>
     b54:	68 af       	std	Y+56, r22	; 0x38
     b56:	79 af       	std	Y+57, r23	; 0x39
     b58:	8a af       	std	Y+58, r24	; 0x3a
     b5a:	9b af       	std	Y+59, r25	; 0x3b
     b5c:	88 ad       	ldd	r24, Y+56	; 0x38
     b5e:	99 ad       	ldd	r25, Y+57	; 0x39
     b60:	aa ad       	ldd	r26, Y+58	; 0x3a
     b62:	bb ad       	ldd	r27, Y+59	; 0x3b
     b64:	89 a3       	std	Y+33, r24	; 0x21
     b66:	9a a3       	std	Y+34, r25	; 0x22
     b68:	ab a3       	std	Y+35, r26	; 0x23
     b6a:	bc a3       	std	Y+36, r27	; 0x24
     b6c:	20 e0       	ldi	r18, 0x00	; 0
     b6e:	30 e0       	ldi	r19, 0x00	; 0
     b70:	40 e8       	ldi	r20, 0x80	; 128
     b72:	5f e3       	ldi	r21, 0x3F	; 63
     b74:	69 a1       	ldd	r22, Y+33	; 0x21
     b76:	7a a1       	ldd	r23, Y+34	; 0x22
     b78:	8b a1       	ldd	r24, Y+35	; 0x23
     b7a:	9c a1       	ldd	r25, Y+36	; 0x24
     b7c:	0e 94 ca 16 	call	0x2d94	; 0x2d94 <__cmpsf2>
     b80:	88 23       	and	r24, r24
     b82:	2c f4       	brge	.+10     	; 0xb8e <HAL_LCD_voidWriteCommand+0xba>
     b84:	81 e0       	ldi	r24, 0x01	; 1
     b86:	90 e0       	ldi	r25, 0x00	; 0
     b88:	9e a3       	std	Y+38, r25	; 0x26
     b8a:	8d a3       	std	Y+37, r24	; 0x25
     b8c:	5d c0       	rjmp	.+186    	; 0xc48 <HAL_LCD_voidWriteCommand+0x174>
     b8e:	20 e0       	ldi	r18, 0x00	; 0
     b90:	3f ef       	ldi	r19, 0xFF	; 255
     b92:	4f e7       	ldi	r20, 0x7F	; 127
     b94:	57 e4       	ldi	r21, 0x47	; 71
     b96:	69 a1       	ldd	r22, Y+33	; 0x21
     b98:	7a a1       	ldd	r23, Y+34	; 0x22
     b9a:	8b a1       	ldd	r24, Y+35	; 0x23
     b9c:	9c a1       	ldd	r25, Y+36	; 0x24
     b9e:	0e 94 4b 17 	call	0x2e96	; 0x2e96 <__gesf2>
     ba2:	18 16       	cp	r1, r24
     ba4:	0c f0       	brlt	.+2      	; 0xba8 <HAL_LCD_voidWriteCommand+0xd4>
     ba6:	3e c0       	rjmp	.+124    	; 0xc24 <HAL_LCD_voidWriteCommand+0x150>
     ba8:	20 e0       	ldi	r18, 0x00	; 0
     baa:	30 e0       	ldi	r19, 0x00	; 0
     bac:	40 e2       	ldi	r20, 0x20	; 32
     bae:	51 e4       	ldi	r21, 0x41	; 65
     bb0:	6d 8d       	ldd	r22, Y+29	; 0x1d
     bb2:	7e 8d       	ldd	r23, Y+30	; 0x1e
     bb4:	8f 8d       	ldd	r24, Y+31	; 0x1f
     bb6:	98 a1       	ldd	r25, Y+32	; 0x20
     bb8:	0e 94 50 17 	call	0x2ea0	; 0x2ea0 <__mulsf3>
     bbc:	6c af       	std	Y+60, r22	; 0x3c
     bbe:	7d af       	std	Y+61, r23	; 0x3d
     bc0:	8e af       	std	Y+62, r24	; 0x3e
     bc2:	9f af       	std	Y+63, r25	; 0x3f
     bc4:	8c ad       	ldd	r24, Y+60	; 0x3c
     bc6:	9d ad       	ldd	r25, Y+61	; 0x3d
     bc8:	ae ad       	ldd	r26, Y+62	; 0x3e
     bca:	bf ad       	ldd	r27, Y+63	; 0x3f
     bcc:	8c ab       	std	Y+52, r24	; 0x34
     bce:	9d ab       	std	Y+53, r25	; 0x35
     bd0:	ae ab       	std	Y+54, r26	; 0x36
     bd2:	bf ab       	std	Y+55, r27	; 0x37
     bd4:	6c a9       	ldd	r22, Y+52	; 0x34
     bd6:	7d a9       	ldd	r23, Y+53	; 0x35
     bd8:	8e a9       	ldd	r24, Y+54	; 0x36
     bda:	9f a9       	ldd	r25, Y+55	; 0x37
     bdc:	0e 94 cf 16 	call	0x2d9e	; 0x2d9e <__fixunssfsi>
     be0:	24 96       	adiw	r28, 0x04	; 4
     be2:	6c af       	std	Y+60, r22	; 0x3c
     be4:	7d af       	std	Y+61, r23	; 0x3d
     be6:	8e af       	std	Y+62, r24	; 0x3e
     be8:	9f af       	std	Y+63, r25	; 0x3f
     bea:	24 97       	sbiw	r28, 0x04	; 4
     bec:	22 96       	adiw	r28, 0x02	; 2
     bee:	ae ad       	ldd	r26, Y+62	; 0x3e
     bf0:	bf ad       	ldd	r27, Y+63	; 0x3f
     bf2:	22 97       	sbiw	r28, 0x02	; 2
     bf4:	be a3       	std	Y+38, r27	; 0x26
     bf6:	ad a3       	std	Y+37, r26	; 0x25
     bf8:	10 c0       	rjmp	.+32     	; 0xc1a <HAL_LCD_voidWriteCommand+0x146>
     bfa:	88 ec       	ldi	r24, 0xC8	; 200
     bfc:	90 e0       	ldi	r25, 0x00	; 0
     bfe:	98 a7       	std	Y+40, r25	; 0x28
     c00:	8f a3       	std	Y+39, r24	; 0x27
     c02:	8f a1       	ldd	r24, Y+39	; 0x27
     c04:	98 a5       	ldd	r25, Y+40	; 0x28
     c06:	01 97       	sbiw	r24, 0x01	; 1
     c08:	f1 f7       	brne	.-4      	; 0xc06 <HAL_LCD_voidWriteCommand+0x132>
     c0a:	98 a7       	std	Y+40, r25	; 0x28
     c0c:	8f a3       	std	Y+39, r24	; 0x27
     c0e:	00 00       	nop
     c10:	8d a1       	ldd	r24, Y+37	; 0x25
     c12:	9e a1       	ldd	r25, Y+38	; 0x26
     c14:	01 97       	sbiw	r24, 0x01	; 1
     c16:	9e a3       	std	Y+38, r25	; 0x26
     c18:	8d a3       	std	Y+37, r24	; 0x25
     c1a:	8d a1       	ldd	r24, Y+37	; 0x25
     c1c:	9e a1       	ldd	r25, Y+38	; 0x26
     c1e:	89 2b       	or	r24, r25
     c20:	61 f7       	brne	.-40     	; 0xbfa <HAL_LCD_voidWriteCommand+0x126>
     c22:	1d c0       	rjmp	.+58     	; 0xc5e <HAL_LCD_voidWriteCommand+0x18a>
     c24:	69 a1       	ldd	r22, Y+33	; 0x21
     c26:	7a a1       	ldd	r23, Y+34	; 0x22
     c28:	8b a1       	ldd	r24, Y+35	; 0x23
     c2a:	9c a1       	ldd	r25, Y+36	; 0x24
     c2c:	0e 94 cf 16 	call	0x2d9e	; 0x2d9e <__fixunssfsi>
     c30:	28 96       	adiw	r28, 0x08	; 8
     c32:	6c af       	std	Y+60, r22	; 0x3c
     c34:	7d af       	std	Y+61, r23	; 0x3d
     c36:	8e af       	std	Y+62, r24	; 0x3e
     c38:	9f af       	std	Y+63, r25	; 0x3f
     c3a:	28 97       	sbiw	r28, 0x08	; 8
     c3c:	26 96       	adiw	r28, 0x06	; 6
     c3e:	ee ad       	ldd	r30, Y+62	; 0x3e
     c40:	ff ad       	ldd	r31, Y+63	; 0x3f
     c42:	26 97       	sbiw	r28, 0x06	; 6
     c44:	fe a3       	std	Y+38, r31	; 0x26
     c46:	ed a3       	std	Y+37, r30	; 0x25
     c48:	8d a1       	ldd	r24, Y+37	; 0x25
     c4a:	9e a1       	ldd	r25, Y+38	; 0x26
     c4c:	9a a7       	std	Y+42, r25	; 0x2a
     c4e:	89 a7       	std	Y+41, r24	; 0x29
     c50:	89 a5       	ldd	r24, Y+41	; 0x29
     c52:	9a a5       	ldd	r25, Y+42	; 0x2a
     c54:	01 97       	sbiw	r24, 0x01	; 1
     c56:	f1 f7       	brne	.-4      	; 0xc54 <HAL_LCD_voidWriteCommand+0x180>
     c58:	9a a7       	std	Y+42, r25	; 0x2a
     c5a:	89 a7       	std	Y+41, r24	; 0x29
     c5c:	00 00       	nop
     c5e:	40 e0       	ldi	r20, 0x00	; 0
     c60:	63 e0       	ldi	r22, 0x03	; 3
     c62:	82 e0       	ldi	r24, 0x02	; 2
     c64:	0e 94 46 01 	call	0x28c	; 0x28c <MCAL_DIO_u8SetPinValue>
     c68:	80 e0       	ldi	r24, 0x00	; 0
     c6a:	90 e0       	ldi	r25, 0x00	; 0
     c6c:	a0 e0       	ldi	r26, 0x00	; 0
     c6e:	b0 e4       	ldi	r27, 0x40	; 64
     c70:	8f 87       	std	Y+15, r24	; 0x0f
     c72:	98 8b       	std	Y+16, r25	; 0x10
     c74:	a9 8b       	std	Y+17, r26	; 0x11
     c76:	ba 8b       	std	Y+18, r27	; 0x12
     c78:	20 e0       	ldi	r18, 0x00	; 0
     c7a:	30 e0       	ldi	r19, 0x00	; 0
     c7c:	4a ef       	ldi	r20, 0xFA	; 250
     c7e:	54 e4       	ldi	r21, 0x44	; 68
     c80:	6f 85       	ldd	r22, Y+15	; 0x0f
     c82:	78 89       	ldd	r23, Y+16	; 0x10
     c84:	89 89       	ldd	r24, Y+17	; 0x11
     c86:	9a 89       	ldd	r25, Y+18	; 0x12
     c88:	0e 94 50 17 	call	0x2ea0	; 0x2ea0 <__mulsf3>
     c8c:	2c 96       	adiw	r28, 0x0c	; 12
     c8e:	6c af       	std	Y+60, r22	; 0x3c
     c90:	7d af       	std	Y+61, r23	; 0x3d
     c92:	8e af       	std	Y+62, r24	; 0x3e
     c94:	9f af       	std	Y+63, r25	; 0x3f
     c96:	2c 97       	sbiw	r28, 0x0c	; 12
     c98:	2c 96       	adiw	r28, 0x0c	; 12
     c9a:	8c ad       	ldd	r24, Y+60	; 0x3c
     c9c:	9d ad       	ldd	r25, Y+61	; 0x3d
     c9e:	ae ad       	ldd	r26, Y+62	; 0x3e
     ca0:	bf ad       	ldd	r27, Y+63	; 0x3f
     ca2:	2c 97       	sbiw	r28, 0x0c	; 12
     ca4:	8b 8b       	std	Y+19, r24	; 0x13
     ca6:	9c 8b       	std	Y+20, r25	; 0x14
     ca8:	ad 8b       	std	Y+21, r26	; 0x15
     caa:	be 8b       	std	Y+22, r27	; 0x16
     cac:	20 e0       	ldi	r18, 0x00	; 0
     cae:	30 e0       	ldi	r19, 0x00	; 0
     cb0:	40 e8       	ldi	r20, 0x80	; 128
     cb2:	5f e3       	ldi	r21, 0x3F	; 63
     cb4:	6b 89       	ldd	r22, Y+19	; 0x13
     cb6:	7c 89       	ldd	r23, Y+20	; 0x14
     cb8:	8d 89       	ldd	r24, Y+21	; 0x15
     cba:	9e 89       	ldd	r25, Y+22	; 0x16
     cbc:	0e 94 ca 16 	call	0x2d94	; 0x2d94 <__cmpsf2>
     cc0:	88 23       	and	r24, r24
     cc2:	2c f4       	brge	.+10     	; 0xcce <HAL_LCD_voidWriteCommand+0x1fa>
     cc4:	81 e0       	ldi	r24, 0x01	; 1
     cc6:	90 e0       	ldi	r25, 0x00	; 0
     cc8:	98 8f       	std	Y+24, r25	; 0x18
     cca:	8f 8b       	std	Y+23, r24	; 0x17
     ccc:	61 c0       	rjmp	.+194    	; 0xd90 <HAL_LCD_voidWriteCommand+0x2bc>
     cce:	20 e0       	ldi	r18, 0x00	; 0
     cd0:	3f ef       	ldi	r19, 0xFF	; 255
     cd2:	4f e7       	ldi	r20, 0x7F	; 127
     cd4:	57 e4       	ldi	r21, 0x47	; 71
     cd6:	6b 89       	ldd	r22, Y+19	; 0x13
     cd8:	7c 89       	ldd	r23, Y+20	; 0x14
     cda:	8d 89       	ldd	r24, Y+21	; 0x15
     cdc:	9e 89       	ldd	r25, Y+22	; 0x16
     cde:	0e 94 4b 17 	call	0x2e96	; 0x2e96 <__gesf2>
     ce2:	18 16       	cp	r1, r24
     ce4:	0c f0       	brlt	.+2      	; 0xce8 <HAL_LCD_voidWriteCommand+0x214>
     ce6:	42 c0       	rjmp	.+132    	; 0xd6c <HAL_LCD_voidWriteCommand+0x298>
     ce8:	20 e0       	ldi	r18, 0x00	; 0
     cea:	30 e0       	ldi	r19, 0x00	; 0
     cec:	40 e2       	ldi	r20, 0x20	; 32
     cee:	51 e4       	ldi	r21, 0x41	; 65
     cf0:	6f 85       	ldd	r22, Y+15	; 0x0f
     cf2:	78 89       	ldd	r23, Y+16	; 0x10
     cf4:	89 89       	ldd	r24, Y+17	; 0x11
     cf6:	9a 89       	ldd	r25, Y+18	; 0x12
     cf8:	0e 94 50 17 	call	0x2ea0	; 0x2ea0 <__mulsf3>
     cfc:	60 96       	adiw	r28, 0x10	; 16
     cfe:	6c af       	std	Y+60, r22	; 0x3c
     d00:	7d af       	std	Y+61, r23	; 0x3d
     d02:	8e af       	std	Y+62, r24	; 0x3e
     d04:	9f af       	std	Y+63, r25	; 0x3f
     d06:	60 97       	sbiw	r28, 0x10	; 16
     d08:	60 96       	adiw	r28, 0x10	; 16
     d0a:	8c ad       	ldd	r24, Y+60	; 0x3c
     d0c:	9d ad       	ldd	r25, Y+61	; 0x3d
     d0e:	ae ad       	ldd	r26, Y+62	; 0x3e
     d10:	bf ad       	ldd	r27, Y+63	; 0x3f
     d12:	60 97       	sbiw	r28, 0x10	; 16
     d14:	88 ab       	std	Y+48, r24	; 0x30
     d16:	99 ab       	std	Y+49, r25	; 0x31
     d18:	aa ab       	std	Y+50, r26	; 0x32
     d1a:	bb ab       	std	Y+51, r27	; 0x33
     d1c:	68 a9       	ldd	r22, Y+48	; 0x30
     d1e:	79 a9       	ldd	r23, Y+49	; 0x31
     d20:	8a a9       	ldd	r24, Y+50	; 0x32
     d22:	9b a9       	ldd	r25, Y+51	; 0x33
     d24:	0e 94 cf 16 	call	0x2d9e	; 0x2d9e <__fixunssfsi>
     d28:	64 96       	adiw	r28, 0x14	; 20
     d2a:	6c af       	std	Y+60, r22	; 0x3c
     d2c:	7d af       	std	Y+61, r23	; 0x3d
     d2e:	8e af       	std	Y+62, r24	; 0x3e
     d30:	9f af       	std	Y+63, r25	; 0x3f
     d32:	64 97       	sbiw	r28, 0x14	; 20
     d34:	62 96       	adiw	r28, 0x12	; 18
     d36:	ae ad       	ldd	r26, Y+62	; 0x3e
     d38:	bf ad       	ldd	r27, Y+63	; 0x3f
     d3a:	62 97       	sbiw	r28, 0x12	; 18
     d3c:	b8 8f       	std	Y+24, r27	; 0x18
     d3e:	af 8b       	std	Y+23, r26	; 0x17
     d40:	10 c0       	rjmp	.+32     	; 0xd62 <HAL_LCD_voidWriteCommand+0x28e>
     d42:	88 ec       	ldi	r24, 0xC8	; 200
     d44:	90 e0       	ldi	r25, 0x00	; 0
     d46:	9a 8f       	std	Y+26, r25	; 0x1a
     d48:	89 8f       	std	Y+25, r24	; 0x19
     d4a:	89 8d       	ldd	r24, Y+25	; 0x19
     d4c:	9a 8d       	ldd	r25, Y+26	; 0x1a
     d4e:	01 97       	sbiw	r24, 0x01	; 1
     d50:	f1 f7       	brne	.-4      	; 0xd4e <HAL_LCD_voidWriteCommand+0x27a>
     d52:	9a 8f       	std	Y+26, r25	; 0x1a
     d54:	89 8f       	std	Y+25, r24	; 0x19
     d56:	00 00       	nop
     d58:	8f 89       	ldd	r24, Y+23	; 0x17
     d5a:	98 8d       	ldd	r25, Y+24	; 0x18
     d5c:	01 97       	sbiw	r24, 0x01	; 1
     d5e:	98 8f       	std	Y+24, r25	; 0x18
     d60:	8f 8b       	std	Y+23, r24	; 0x17
     d62:	8f 89       	ldd	r24, Y+23	; 0x17
     d64:	98 8d       	ldd	r25, Y+24	; 0x18
     d66:	89 2b       	or	r24, r25
     d68:	61 f7       	brne	.-40     	; 0xd42 <HAL_LCD_voidWriteCommand+0x26e>
     d6a:	1d c0       	rjmp	.+58     	; 0xda6 <HAL_LCD_voidWriteCommand+0x2d2>
     d6c:	6b 89       	ldd	r22, Y+19	; 0x13
     d6e:	7c 89       	ldd	r23, Y+20	; 0x14
     d70:	8d 89       	ldd	r24, Y+21	; 0x15
     d72:	9e 89       	ldd	r25, Y+22	; 0x16
     d74:	0e 94 cf 16 	call	0x2d9e	; 0x2d9e <__fixunssfsi>
     d78:	68 96       	adiw	r28, 0x18	; 24
     d7a:	6c af       	std	Y+60, r22	; 0x3c
     d7c:	7d af       	std	Y+61, r23	; 0x3d
     d7e:	8e af       	std	Y+62, r24	; 0x3e
     d80:	9f af       	std	Y+63, r25	; 0x3f
     d82:	68 97       	sbiw	r28, 0x18	; 24
     d84:	66 96       	adiw	r28, 0x16	; 22
     d86:	ee ad       	ldd	r30, Y+62	; 0x3e
     d88:	ff ad       	ldd	r31, Y+63	; 0x3f
     d8a:	66 97       	sbiw	r28, 0x16	; 22
     d8c:	f8 8f       	std	Y+24, r31	; 0x18
     d8e:	ef 8b       	std	Y+23, r30	; 0x17
     d90:	8f 89       	ldd	r24, Y+23	; 0x17
     d92:	98 8d       	ldd	r25, Y+24	; 0x18
     d94:	9c 8f       	std	Y+28, r25	; 0x1c
     d96:	8b 8f       	std	Y+27, r24	; 0x1b
     d98:	8b 8d       	ldd	r24, Y+27	; 0x1b
     d9a:	9c 8d       	ldd	r25, Y+28	; 0x1c
     d9c:	01 97       	sbiw	r24, 0x01	; 1
     d9e:	f1 f7       	brne	.-4      	; 0xd9c <HAL_LCD_voidWriteCommand+0x2c8>
     da0:	9c 8f       	std	Y+28, r25	; 0x1c
     da2:	8b 8f       	std	Y+27, r24	; 0x1b
     da4:	00 00       	nop
     da6:	40 e0       	ldi	r20, 0x00	; 0
     da8:	63 e0       	ldi	r22, 0x03	; 3
     daa:	82 e0       	ldi	r24, 0x02	; 2
     dac:	0e 94 46 01 	call	0x28c	; 0x28c <MCAL_DIO_u8SetPinValue>
     db0:	40 e0       	ldi	r20, 0x00	; 0
     db2:	61 e0       	ldi	r22, 0x01	; 1
     db4:	82 e0       	ldi	r24, 0x02	; 2
     db6:	0e 94 46 01 	call	0x28c	; 0x28c <MCAL_DIO_u8SetPinValue>
     dba:	40 e0       	ldi	r20, 0x00	; 0
     dbc:	62 e0       	ldi	r22, 0x02	; 2
     dbe:	82 e0       	ldi	r24, 0x02	; 2
     dc0:	0e 94 46 01 	call	0x28c	; 0x28c <MCAL_DIO_u8SetPinValue>
     dc4:	85 e3       	ldi	r24, 0x35	; 53
     dc6:	90 e0       	ldi	r25, 0x00	; 0
     dc8:	dc 01       	movw	r26, r24
     dca:	8c 91       	ld	r24, X
     dcc:	28 2f       	mov	r18, r24
     dce:	2f 70       	andi	r18, 0x0F	; 15
     dd0:	8b a5       	ldd	r24, Y+43	; 0x2b
     dd2:	88 2f       	mov	r24, r24
     dd4:	90 e0       	ldi	r25, 0x00	; 0
     dd6:	82 95       	swap	r24
     dd8:	92 95       	swap	r25
     dda:	90 7f       	andi	r25, 0xF0	; 240
     ddc:	98 27       	eor	r25, r24
     dde:	80 7f       	andi	r24, 0xF0	; 240
     de0:	98 27       	eor	r25, r24
     de2:	28 2b       	or	r18, r24
     de4:	85 e3       	ldi	r24, 0x35	; 53
     de6:	90 e0       	ldi	r25, 0x00	; 0
     de8:	fc 01       	movw	r30, r24
     dea:	20 83       	st	Z, r18
     dec:	41 e0       	ldi	r20, 0x01	; 1
     dee:	63 e0       	ldi	r22, 0x03	; 3
     df0:	82 e0       	ldi	r24, 0x02	; 2
     df2:	0e 94 46 01 	call	0x28c	; 0x28c <MCAL_DIO_u8SetPinValue>
     df6:	80 e0       	ldi	r24, 0x00	; 0
     df8:	90 e0       	ldi	r25, 0x00	; 0
     dfa:	a0 e0       	ldi	r26, 0x00	; 0
     dfc:	b0 e4       	ldi	r27, 0x40	; 64
     dfe:	89 83       	std	Y+1, r24	; 0x01
     e00:	9a 83       	std	Y+2, r25	; 0x02
     e02:	ab 83       	std	Y+3, r26	; 0x03
     e04:	bc 83       	std	Y+4, r27	; 0x04
     e06:	20 e0       	ldi	r18, 0x00	; 0
     e08:	30 e0       	ldi	r19, 0x00	; 0
     e0a:	4a ef       	ldi	r20, 0xFA	; 250
     e0c:	54 e4       	ldi	r21, 0x44	; 68
     e0e:	69 81       	ldd	r22, Y+1	; 0x01
     e10:	7a 81       	ldd	r23, Y+2	; 0x02
     e12:	8b 81       	ldd	r24, Y+3	; 0x03
     e14:	9c 81       	ldd	r25, Y+4	; 0x04
     e16:	0e 94 50 17 	call	0x2ea0	; 0x2ea0 <__mulsf3>
     e1a:	6c 96       	adiw	r28, 0x1c	; 28
     e1c:	6c af       	std	Y+60, r22	; 0x3c
     e1e:	7d af       	std	Y+61, r23	; 0x3d
     e20:	8e af       	std	Y+62, r24	; 0x3e
     e22:	9f af       	std	Y+63, r25	; 0x3f
     e24:	6c 97       	sbiw	r28, 0x1c	; 28
     e26:	6c 96       	adiw	r28, 0x1c	; 28
     e28:	8c ad       	ldd	r24, Y+60	; 0x3c
     e2a:	9d ad       	ldd	r25, Y+61	; 0x3d
     e2c:	ae ad       	ldd	r26, Y+62	; 0x3e
     e2e:	bf ad       	ldd	r27, Y+63	; 0x3f
     e30:	6c 97       	sbiw	r28, 0x1c	; 28
     e32:	8d 83       	std	Y+5, r24	; 0x05
     e34:	9e 83       	std	Y+6, r25	; 0x06
     e36:	af 83       	std	Y+7, r26	; 0x07
     e38:	b8 87       	std	Y+8, r27	; 0x08
     e3a:	20 e0       	ldi	r18, 0x00	; 0
     e3c:	30 e0       	ldi	r19, 0x00	; 0
     e3e:	40 e8       	ldi	r20, 0x80	; 128
     e40:	5f e3       	ldi	r21, 0x3F	; 63
     e42:	6d 81       	ldd	r22, Y+5	; 0x05
     e44:	7e 81       	ldd	r23, Y+6	; 0x06
     e46:	8f 81       	ldd	r24, Y+7	; 0x07
     e48:	98 85       	ldd	r25, Y+8	; 0x08
     e4a:	0e 94 ca 16 	call	0x2d94	; 0x2d94 <__cmpsf2>
     e4e:	88 23       	and	r24, r24
     e50:	2c f4       	brge	.+10     	; 0xe5c <HAL_LCD_voidWriteCommand+0x388>
     e52:	81 e0       	ldi	r24, 0x01	; 1
     e54:	90 e0       	ldi	r25, 0x00	; 0
     e56:	9a 87       	std	Y+10, r25	; 0x0a
     e58:	89 87       	std	Y+9, r24	; 0x09
     e5a:	61 c0       	rjmp	.+194    	; 0xf1e <HAL_LCD_voidWriteCommand+0x44a>
     e5c:	20 e0       	ldi	r18, 0x00	; 0
     e5e:	3f ef       	ldi	r19, 0xFF	; 255
     e60:	4f e7       	ldi	r20, 0x7F	; 127
     e62:	57 e4       	ldi	r21, 0x47	; 71
     e64:	6d 81       	ldd	r22, Y+5	; 0x05
     e66:	7e 81       	ldd	r23, Y+6	; 0x06
     e68:	8f 81       	ldd	r24, Y+7	; 0x07
     e6a:	98 85       	ldd	r25, Y+8	; 0x08
     e6c:	0e 94 4b 17 	call	0x2e96	; 0x2e96 <__gesf2>
     e70:	18 16       	cp	r1, r24
     e72:	0c f0       	brlt	.+2      	; 0xe76 <HAL_LCD_voidWriteCommand+0x3a2>
     e74:	42 c0       	rjmp	.+132    	; 0xefa <HAL_LCD_voidWriteCommand+0x426>
     e76:	20 e0       	ldi	r18, 0x00	; 0
     e78:	30 e0       	ldi	r19, 0x00	; 0
     e7a:	40 e2       	ldi	r20, 0x20	; 32
     e7c:	51 e4       	ldi	r21, 0x41	; 65
     e7e:	69 81       	ldd	r22, Y+1	; 0x01
     e80:	7a 81       	ldd	r23, Y+2	; 0x02
     e82:	8b 81       	ldd	r24, Y+3	; 0x03
     e84:	9c 81       	ldd	r25, Y+4	; 0x04
     e86:	0e 94 50 17 	call	0x2ea0	; 0x2ea0 <__mulsf3>
     e8a:	a0 96       	adiw	r28, 0x20	; 32
     e8c:	6c af       	std	Y+60, r22	; 0x3c
     e8e:	7d af       	std	Y+61, r23	; 0x3d
     e90:	8e af       	std	Y+62, r24	; 0x3e
     e92:	9f af       	std	Y+63, r25	; 0x3f
     e94:	a0 97       	sbiw	r28, 0x20	; 32
     e96:	a0 96       	adiw	r28, 0x20	; 32
     e98:	8c ad       	ldd	r24, Y+60	; 0x3c
     e9a:	9d ad       	ldd	r25, Y+61	; 0x3d
     e9c:	ae ad       	ldd	r26, Y+62	; 0x3e
     e9e:	bf ad       	ldd	r27, Y+63	; 0x3f
     ea0:	a0 97       	sbiw	r28, 0x20	; 32
     ea2:	8c a7       	std	Y+44, r24	; 0x2c
     ea4:	9d a7       	std	Y+45, r25	; 0x2d
     ea6:	ae a7       	std	Y+46, r26	; 0x2e
     ea8:	bf a7       	std	Y+47, r27	; 0x2f
     eaa:	6c a5       	ldd	r22, Y+44	; 0x2c
     eac:	7d a5       	ldd	r23, Y+45	; 0x2d
     eae:	8e a5       	ldd	r24, Y+46	; 0x2e
     eb0:	9f a5       	ldd	r25, Y+47	; 0x2f
     eb2:	0e 94 cf 16 	call	0x2d9e	; 0x2d9e <__fixunssfsi>
     eb6:	a4 96       	adiw	r28, 0x24	; 36
     eb8:	6c af       	std	Y+60, r22	; 0x3c
     eba:	7d af       	std	Y+61, r23	; 0x3d
     ebc:	8e af       	std	Y+62, r24	; 0x3e
     ebe:	9f af       	std	Y+63, r25	; 0x3f
     ec0:	a4 97       	sbiw	r28, 0x24	; 36
     ec2:	a2 96       	adiw	r28, 0x22	; 34
     ec4:	ae ad       	ldd	r26, Y+62	; 0x3e
     ec6:	bf ad       	ldd	r27, Y+63	; 0x3f
     ec8:	a2 97       	sbiw	r28, 0x22	; 34
     eca:	ba 87       	std	Y+10, r27	; 0x0a
     ecc:	a9 87       	std	Y+9, r26	; 0x09
     ece:	10 c0       	rjmp	.+32     	; 0xef0 <HAL_LCD_voidWriteCommand+0x41c>
     ed0:	88 ec       	ldi	r24, 0xC8	; 200
     ed2:	90 e0       	ldi	r25, 0x00	; 0
     ed4:	9c 87       	std	Y+12, r25	; 0x0c
     ed6:	8b 87       	std	Y+11, r24	; 0x0b
     ed8:	8b 85       	ldd	r24, Y+11	; 0x0b
     eda:	9c 85       	ldd	r25, Y+12	; 0x0c
     edc:	01 97       	sbiw	r24, 0x01	; 1
     ede:	f1 f7       	brne	.-4      	; 0xedc <HAL_LCD_voidWriteCommand+0x408>
     ee0:	9c 87       	std	Y+12, r25	; 0x0c
     ee2:	8b 87       	std	Y+11, r24	; 0x0b
     ee4:	00 00       	nop
     ee6:	89 85       	ldd	r24, Y+9	; 0x09
     ee8:	9a 85       	ldd	r25, Y+10	; 0x0a
     eea:	01 97       	sbiw	r24, 0x01	; 1
     eec:	9a 87       	std	Y+10, r25	; 0x0a
     eee:	89 87       	std	Y+9, r24	; 0x09
     ef0:	89 85       	ldd	r24, Y+9	; 0x09
     ef2:	9a 85       	ldd	r25, Y+10	; 0x0a
     ef4:	89 2b       	or	r24, r25
     ef6:	61 f7       	brne	.-40     	; 0xed0 <HAL_LCD_voidWriteCommand+0x3fc>
     ef8:	1d c0       	rjmp	.+58     	; 0xf34 <HAL_LCD_voidWriteCommand+0x460>
     efa:	6d 81       	ldd	r22, Y+5	; 0x05
     efc:	7e 81       	ldd	r23, Y+6	; 0x06
     efe:	8f 81       	ldd	r24, Y+7	; 0x07
     f00:	98 85       	ldd	r25, Y+8	; 0x08
     f02:	0e 94 cf 16 	call	0x2d9e	; 0x2d9e <__fixunssfsi>
     f06:	a8 96       	adiw	r28, 0x28	; 40
     f08:	6c af       	std	Y+60, r22	; 0x3c
     f0a:	7d af       	std	Y+61, r23	; 0x3d
     f0c:	8e af       	std	Y+62, r24	; 0x3e
     f0e:	9f af       	std	Y+63, r25	; 0x3f
     f10:	a8 97       	sbiw	r28, 0x28	; 40
     f12:	a6 96       	adiw	r28, 0x26	; 38
     f14:	ee ad       	ldd	r30, Y+62	; 0x3e
     f16:	ff ad       	ldd	r31, Y+63	; 0x3f
     f18:	a6 97       	sbiw	r28, 0x26	; 38
     f1a:	fa 87       	std	Y+10, r31	; 0x0a
     f1c:	e9 87       	std	Y+9, r30	; 0x09
     f1e:	89 85       	ldd	r24, Y+9	; 0x09
     f20:	9a 85       	ldd	r25, Y+10	; 0x0a
     f22:	9e 87       	std	Y+14, r25	; 0x0e
     f24:	8d 87       	std	Y+13, r24	; 0x0d
     f26:	8d 85       	ldd	r24, Y+13	; 0x0d
     f28:	9e 85       	ldd	r25, Y+14	; 0x0e
     f2a:	01 97       	sbiw	r24, 0x01	; 1
     f2c:	f1 f7       	brne	.-4      	; 0xf2a <HAL_LCD_voidWriteCommand+0x456>
     f2e:	9e 87       	std	Y+14, r25	; 0x0e
     f30:	8d 87       	std	Y+13, r24	; 0x0d
     f32:	00 00       	nop
     f34:	40 e0       	ldi	r20, 0x00	; 0
     f36:	63 e0       	ldi	r22, 0x03	; 3
     f38:	82 e0       	ldi	r24, 0x02	; 2
     f3a:	0e 94 46 01 	call	0x28c	; 0x28c <MCAL_DIO_u8SetPinValue>
     f3e:	00 00       	nop
     f40:	c9 59       	subi	r28, 0x99	; 153
     f42:	df 4f       	sbci	r29, 0xFF	; 255
     f44:	0f b6       	in	r0, 0x3f	; 63
     f46:	f8 94       	cli
     f48:	de bf       	out	0x3e, r29	; 62
     f4a:	0f be       	out	0x3f, r0	; 63
     f4c:	cd bf       	out	0x3d, r28	; 61
     f4e:	df 91       	pop	r29
     f50:	cf 91       	pop	r28
     f52:	08 95       	ret

00000f54 <HAL_LCD_voidWriteData>:
     f54:	cf 93       	push	r28
     f56:	df 93       	push	r29
     f58:	cd b7       	in	r28, 0x3d	; 61
     f5a:	de b7       	in	r29, 0x3e	; 62
     f5c:	c7 56       	subi	r28, 0x67	; 103
     f5e:	d1 09       	sbc	r29, r1
     f60:	0f b6       	in	r0, 0x3f	; 63
     f62:	f8 94       	cli
     f64:	de bf       	out	0x3e, r29	; 62
     f66:	0f be       	out	0x3f, r0	; 63
     f68:	cd bf       	out	0x3d, r28	; 61
     f6a:	8b a7       	std	Y+43, r24	; 0x2b
     f6c:	40 e0       	ldi	r20, 0x00	; 0
     f6e:	63 e0       	ldi	r22, 0x03	; 3
     f70:	82 e0       	ldi	r24, 0x02	; 2
     f72:	0e 94 46 01 	call	0x28c	; 0x28c <MCAL_DIO_u8SetPinValue>
     f76:	41 e0       	ldi	r20, 0x01	; 1
     f78:	61 e0       	ldi	r22, 0x01	; 1
     f7a:	82 e0       	ldi	r24, 0x02	; 2
     f7c:	0e 94 46 01 	call	0x28c	; 0x28c <MCAL_DIO_u8SetPinValue>
     f80:	40 e0       	ldi	r20, 0x00	; 0
     f82:	62 e0       	ldi	r22, 0x02	; 2
     f84:	82 e0       	ldi	r24, 0x02	; 2
     f86:	0e 94 46 01 	call	0x28c	; 0x28c <MCAL_DIO_u8SetPinValue>
     f8a:	85 e3       	ldi	r24, 0x35	; 53
     f8c:	90 e0       	ldi	r25, 0x00	; 0
     f8e:	dc 01       	movw	r26, r24
     f90:	8c 91       	ld	r24, X
     f92:	98 2f       	mov	r25, r24
     f94:	9f 70       	andi	r25, 0x0F	; 15
     f96:	8b a5       	ldd	r24, Y+43	; 0x2b
     f98:	80 7f       	andi	r24, 0xF0	; 240
     f9a:	29 2f       	mov	r18, r25
     f9c:	28 2b       	or	r18, r24
     f9e:	85 e3       	ldi	r24, 0x35	; 53
     fa0:	90 e0       	ldi	r25, 0x00	; 0
     fa2:	fc 01       	movw	r30, r24
     fa4:	20 83       	st	Z, r18
     fa6:	41 e0       	ldi	r20, 0x01	; 1
     fa8:	63 e0       	ldi	r22, 0x03	; 3
     faa:	82 e0       	ldi	r24, 0x02	; 2
     fac:	0e 94 46 01 	call	0x28c	; 0x28c <MCAL_DIO_u8SetPinValue>
     fb0:	80 e0       	ldi	r24, 0x00	; 0
     fb2:	90 e0       	ldi	r25, 0x00	; 0
     fb4:	a0 e0       	ldi	r26, 0x00	; 0
     fb6:	b0 e4       	ldi	r27, 0x40	; 64
     fb8:	8d 8f       	std	Y+29, r24	; 0x1d
     fba:	9e 8f       	std	Y+30, r25	; 0x1e
     fbc:	af 8f       	std	Y+31, r26	; 0x1f
     fbe:	b8 a3       	std	Y+32, r27	; 0x20
     fc0:	20 e0       	ldi	r18, 0x00	; 0
     fc2:	30 e0       	ldi	r19, 0x00	; 0
     fc4:	4a ef       	ldi	r20, 0xFA	; 250
     fc6:	54 e4       	ldi	r21, 0x44	; 68
     fc8:	6d 8d       	ldd	r22, Y+29	; 0x1d
     fca:	7e 8d       	ldd	r23, Y+30	; 0x1e
     fcc:	8f 8d       	ldd	r24, Y+31	; 0x1f
     fce:	98 a1       	ldd	r25, Y+32	; 0x20
     fd0:	0e 94 50 17 	call	0x2ea0	; 0x2ea0 <__mulsf3>
     fd4:	68 af       	std	Y+56, r22	; 0x38
     fd6:	79 af       	std	Y+57, r23	; 0x39
     fd8:	8a af       	std	Y+58, r24	; 0x3a
     fda:	9b af       	std	Y+59, r25	; 0x3b
     fdc:	88 ad       	ldd	r24, Y+56	; 0x38
     fde:	99 ad       	ldd	r25, Y+57	; 0x39
     fe0:	aa ad       	ldd	r26, Y+58	; 0x3a
     fe2:	bb ad       	ldd	r27, Y+59	; 0x3b
     fe4:	89 a3       	std	Y+33, r24	; 0x21
     fe6:	9a a3       	std	Y+34, r25	; 0x22
     fe8:	ab a3       	std	Y+35, r26	; 0x23
     fea:	bc a3       	std	Y+36, r27	; 0x24
     fec:	20 e0       	ldi	r18, 0x00	; 0
     fee:	30 e0       	ldi	r19, 0x00	; 0
     ff0:	40 e8       	ldi	r20, 0x80	; 128
     ff2:	5f e3       	ldi	r21, 0x3F	; 63
     ff4:	69 a1       	ldd	r22, Y+33	; 0x21
     ff6:	7a a1       	ldd	r23, Y+34	; 0x22
     ff8:	8b a1       	ldd	r24, Y+35	; 0x23
     ffa:	9c a1       	ldd	r25, Y+36	; 0x24
     ffc:	0e 94 ca 16 	call	0x2d94	; 0x2d94 <__cmpsf2>
    1000:	88 23       	and	r24, r24
    1002:	2c f4       	brge	.+10     	; 0x100e <HAL_LCD_voidWriteData+0xba>
    1004:	81 e0       	ldi	r24, 0x01	; 1
    1006:	90 e0       	ldi	r25, 0x00	; 0
    1008:	9e a3       	std	Y+38, r25	; 0x26
    100a:	8d a3       	std	Y+37, r24	; 0x25
    100c:	5d c0       	rjmp	.+186    	; 0x10c8 <HAL_LCD_voidWriteData+0x174>
    100e:	20 e0       	ldi	r18, 0x00	; 0
    1010:	3f ef       	ldi	r19, 0xFF	; 255
    1012:	4f e7       	ldi	r20, 0x7F	; 127
    1014:	57 e4       	ldi	r21, 0x47	; 71
    1016:	69 a1       	ldd	r22, Y+33	; 0x21
    1018:	7a a1       	ldd	r23, Y+34	; 0x22
    101a:	8b a1       	ldd	r24, Y+35	; 0x23
    101c:	9c a1       	ldd	r25, Y+36	; 0x24
    101e:	0e 94 4b 17 	call	0x2e96	; 0x2e96 <__gesf2>
    1022:	18 16       	cp	r1, r24
    1024:	0c f0       	brlt	.+2      	; 0x1028 <HAL_LCD_voidWriteData+0xd4>
    1026:	3e c0       	rjmp	.+124    	; 0x10a4 <HAL_LCD_voidWriteData+0x150>
    1028:	20 e0       	ldi	r18, 0x00	; 0
    102a:	30 e0       	ldi	r19, 0x00	; 0
    102c:	40 e2       	ldi	r20, 0x20	; 32
    102e:	51 e4       	ldi	r21, 0x41	; 65
    1030:	6d 8d       	ldd	r22, Y+29	; 0x1d
    1032:	7e 8d       	ldd	r23, Y+30	; 0x1e
    1034:	8f 8d       	ldd	r24, Y+31	; 0x1f
    1036:	98 a1       	ldd	r25, Y+32	; 0x20
    1038:	0e 94 50 17 	call	0x2ea0	; 0x2ea0 <__mulsf3>
    103c:	6c af       	std	Y+60, r22	; 0x3c
    103e:	7d af       	std	Y+61, r23	; 0x3d
    1040:	8e af       	std	Y+62, r24	; 0x3e
    1042:	9f af       	std	Y+63, r25	; 0x3f
    1044:	8c ad       	ldd	r24, Y+60	; 0x3c
    1046:	9d ad       	ldd	r25, Y+61	; 0x3d
    1048:	ae ad       	ldd	r26, Y+62	; 0x3e
    104a:	bf ad       	ldd	r27, Y+63	; 0x3f
    104c:	8c ab       	std	Y+52, r24	; 0x34
    104e:	9d ab       	std	Y+53, r25	; 0x35
    1050:	ae ab       	std	Y+54, r26	; 0x36
    1052:	bf ab       	std	Y+55, r27	; 0x37
    1054:	6c a9       	ldd	r22, Y+52	; 0x34
    1056:	7d a9       	ldd	r23, Y+53	; 0x35
    1058:	8e a9       	ldd	r24, Y+54	; 0x36
    105a:	9f a9       	ldd	r25, Y+55	; 0x37
    105c:	0e 94 cf 16 	call	0x2d9e	; 0x2d9e <__fixunssfsi>
    1060:	24 96       	adiw	r28, 0x04	; 4
    1062:	6c af       	std	Y+60, r22	; 0x3c
    1064:	7d af       	std	Y+61, r23	; 0x3d
    1066:	8e af       	std	Y+62, r24	; 0x3e
    1068:	9f af       	std	Y+63, r25	; 0x3f
    106a:	24 97       	sbiw	r28, 0x04	; 4
    106c:	22 96       	adiw	r28, 0x02	; 2
    106e:	ae ad       	ldd	r26, Y+62	; 0x3e
    1070:	bf ad       	ldd	r27, Y+63	; 0x3f
    1072:	22 97       	sbiw	r28, 0x02	; 2
    1074:	be a3       	std	Y+38, r27	; 0x26
    1076:	ad a3       	std	Y+37, r26	; 0x25
    1078:	10 c0       	rjmp	.+32     	; 0x109a <HAL_LCD_voidWriteData+0x146>
    107a:	88 ec       	ldi	r24, 0xC8	; 200
    107c:	90 e0       	ldi	r25, 0x00	; 0
    107e:	98 a7       	std	Y+40, r25	; 0x28
    1080:	8f a3       	std	Y+39, r24	; 0x27
    1082:	8f a1       	ldd	r24, Y+39	; 0x27
    1084:	98 a5       	ldd	r25, Y+40	; 0x28
    1086:	01 97       	sbiw	r24, 0x01	; 1
    1088:	f1 f7       	brne	.-4      	; 0x1086 <HAL_LCD_voidWriteData+0x132>
    108a:	98 a7       	std	Y+40, r25	; 0x28
    108c:	8f a3       	std	Y+39, r24	; 0x27
    108e:	00 00       	nop
    1090:	8d a1       	ldd	r24, Y+37	; 0x25
    1092:	9e a1       	ldd	r25, Y+38	; 0x26
    1094:	01 97       	sbiw	r24, 0x01	; 1
    1096:	9e a3       	std	Y+38, r25	; 0x26
    1098:	8d a3       	std	Y+37, r24	; 0x25
    109a:	8d a1       	ldd	r24, Y+37	; 0x25
    109c:	9e a1       	ldd	r25, Y+38	; 0x26
    109e:	89 2b       	or	r24, r25
    10a0:	61 f7       	brne	.-40     	; 0x107a <HAL_LCD_voidWriteData+0x126>
    10a2:	1d c0       	rjmp	.+58     	; 0x10de <HAL_LCD_voidWriteData+0x18a>
    10a4:	69 a1       	ldd	r22, Y+33	; 0x21
    10a6:	7a a1       	ldd	r23, Y+34	; 0x22
    10a8:	8b a1       	ldd	r24, Y+35	; 0x23
    10aa:	9c a1       	ldd	r25, Y+36	; 0x24
    10ac:	0e 94 cf 16 	call	0x2d9e	; 0x2d9e <__fixunssfsi>
    10b0:	28 96       	adiw	r28, 0x08	; 8
    10b2:	6c af       	std	Y+60, r22	; 0x3c
    10b4:	7d af       	std	Y+61, r23	; 0x3d
    10b6:	8e af       	std	Y+62, r24	; 0x3e
    10b8:	9f af       	std	Y+63, r25	; 0x3f
    10ba:	28 97       	sbiw	r28, 0x08	; 8
    10bc:	26 96       	adiw	r28, 0x06	; 6
    10be:	ee ad       	ldd	r30, Y+62	; 0x3e
    10c0:	ff ad       	ldd	r31, Y+63	; 0x3f
    10c2:	26 97       	sbiw	r28, 0x06	; 6
    10c4:	fe a3       	std	Y+38, r31	; 0x26
    10c6:	ed a3       	std	Y+37, r30	; 0x25
    10c8:	8d a1       	ldd	r24, Y+37	; 0x25
    10ca:	9e a1       	ldd	r25, Y+38	; 0x26
    10cc:	9a a7       	std	Y+42, r25	; 0x2a
    10ce:	89 a7       	std	Y+41, r24	; 0x29
    10d0:	89 a5       	ldd	r24, Y+41	; 0x29
    10d2:	9a a5       	ldd	r25, Y+42	; 0x2a
    10d4:	01 97       	sbiw	r24, 0x01	; 1
    10d6:	f1 f7       	brne	.-4      	; 0x10d4 <HAL_LCD_voidWriteData+0x180>
    10d8:	9a a7       	std	Y+42, r25	; 0x2a
    10da:	89 a7       	std	Y+41, r24	; 0x29
    10dc:	00 00       	nop
    10de:	40 e0       	ldi	r20, 0x00	; 0
    10e0:	63 e0       	ldi	r22, 0x03	; 3
    10e2:	82 e0       	ldi	r24, 0x02	; 2
    10e4:	0e 94 46 01 	call	0x28c	; 0x28c <MCAL_DIO_u8SetPinValue>
    10e8:	80 e0       	ldi	r24, 0x00	; 0
    10ea:	90 e0       	ldi	r25, 0x00	; 0
    10ec:	a0 e0       	ldi	r26, 0x00	; 0
    10ee:	b0 e4       	ldi	r27, 0x40	; 64
    10f0:	8f 87       	std	Y+15, r24	; 0x0f
    10f2:	98 8b       	std	Y+16, r25	; 0x10
    10f4:	a9 8b       	std	Y+17, r26	; 0x11
    10f6:	ba 8b       	std	Y+18, r27	; 0x12
    10f8:	20 e0       	ldi	r18, 0x00	; 0
    10fa:	30 e0       	ldi	r19, 0x00	; 0
    10fc:	4a ef       	ldi	r20, 0xFA	; 250
    10fe:	54 e4       	ldi	r21, 0x44	; 68
    1100:	6f 85       	ldd	r22, Y+15	; 0x0f
    1102:	78 89       	ldd	r23, Y+16	; 0x10
    1104:	89 89       	ldd	r24, Y+17	; 0x11
    1106:	9a 89       	ldd	r25, Y+18	; 0x12
    1108:	0e 94 50 17 	call	0x2ea0	; 0x2ea0 <__mulsf3>
    110c:	2c 96       	adiw	r28, 0x0c	; 12
    110e:	6c af       	std	Y+60, r22	; 0x3c
    1110:	7d af       	std	Y+61, r23	; 0x3d
    1112:	8e af       	std	Y+62, r24	; 0x3e
    1114:	9f af       	std	Y+63, r25	; 0x3f
    1116:	2c 97       	sbiw	r28, 0x0c	; 12
    1118:	2c 96       	adiw	r28, 0x0c	; 12
    111a:	8c ad       	ldd	r24, Y+60	; 0x3c
    111c:	9d ad       	ldd	r25, Y+61	; 0x3d
    111e:	ae ad       	ldd	r26, Y+62	; 0x3e
    1120:	bf ad       	ldd	r27, Y+63	; 0x3f
    1122:	2c 97       	sbiw	r28, 0x0c	; 12
    1124:	8b 8b       	std	Y+19, r24	; 0x13
    1126:	9c 8b       	std	Y+20, r25	; 0x14
    1128:	ad 8b       	std	Y+21, r26	; 0x15
    112a:	be 8b       	std	Y+22, r27	; 0x16
    112c:	20 e0       	ldi	r18, 0x00	; 0
    112e:	30 e0       	ldi	r19, 0x00	; 0
    1130:	40 e8       	ldi	r20, 0x80	; 128
    1132:	5f e3       	ldi	r21, 0x3F	; 63
    1134:	6b 89       	ldd	r22, Y+19	; 0x13
    1136:	7c 89       	ldd	r23, Y+20	; 0x14
    1138:	8d 89       	ldd	r24, Y+21	; 0x15
    113a:	9e 89       	ldd	r25, Y+22	; 0x16
    113c:	0e 94 ca 16 	call	0x2d94	; 0x2d94 <__cmpsf2>
    1140:	88 23       	and	r24, r24
    1142:	2c f4       	brge	.+10     	; 0x114e <HAL_LCD_voidWriteData+0x1fa>
    1144:	81 e0       	ldi	r24, 0x01	; 1
    1146:	90 e0       	ldi	r25, 0x00	; 0
    1148:	98 8f       	std	Y+24, r25	; 0x18
    114a:	8f 8b       	std	Y+23, r24	; 0x17
    114c:	61 c0       	rjmp	.+194    	; 0x1210 <HAL_LCD_voidWriteData+0x2bc>
    114e:	20 e0       	ldi	r18, 0x00	; 0
    1150:	3f ef       	ldi	r19, 0xFF	; 255
    1152:	4f e7       	ldi	r20, 0x7F	; 127
    1154:	57 e4       	ldi	r21, 0x47	; 71
    1156:	6b 89       	ldd	r22, Y+19	; 0x13
    1158:	7c 89       	ldd	r23, Y+20	; 0x14
    115a:	8d 89       	ldd	r24, Y+21	; 0x15
    115c:	9e 89       	ldd	r25, Y+22	; 0x16
    115e:	0e 94 4b 17 	call	0x2e96	; 0x2e96 <__gesf2>
    1162:	18 16       	cp	r1, r24
    1164:	0c f0       	brlt	.+2      	; 0x1168 <HAL_LCD_voidWriteData+0x214>
    1166:	42 c0       	rjmp	.+132    	; 0x11ec <HAL_LCD_voidWriteData+0x298>
    1168:	20 e0       	ldi	r18, 0x00	; 0
    116a:	30 e0       	ldi	r19, 0x00	; 0
    116c:	40 e2       	ldi	r20, 0x20	; 32
    116e:	51 e4       	ldi	r21, 0x41	; 65
    1170:	6f 85       	ldd	r22, Y+15	; 0x0f
    1172:	78 89       	ldd	r23, Y+16	; 0x10
    1174:	89 89       	ldd	r24, Y+17	; 0x11
    1176:	9a 89       	ldd	r25, Y+18	; 0x12
    1178:	0e 94 50 17 	call	0x2ea0	; 0x2ea0 <__mulsf3>
    117c:	60 96       	adiw	r28, 0x10	; 16
    117e:	6c af       	std	Y+60, r22	; 0x3c
    1180:	7d af       	std	Y+61, r23	; 0x3d
    1182:	8e af       	std	Y+62, r24	; 0x3e
    1184:	9f af       	std	Y+63, r25	; 0x3f
    1186:	60 97       	sbiw	r28, 0x10	; 16
    1188:	60 96       	adiw	r28, 0x10	; 16
    118a:	8c ad       	ldd	r24, Y+60	; 0x3c
    118c:	9d ad       	ldd	r25, Y+61	; 0x3d
    118e:	ae ad       	ldd	r26, Y+62	; 0x3e
    1190:	bf ad       	ldd	r27, Y+63	; 0x3f
    1192:	60 97       	sbiw	r28, 0x10	; 16
    1194:	88 ab       	std	Y+48, r24	; 0x30
    1196:	99 ab       	std	Y+49, r25	; 0x31
    1198:	aa ab       	std	Y+50, r26	; 0x32
    119a:	bb ab       	std	Y+51, r27	; 0x33
    119c:	68 a9       	ldd	r22, Y+48	; 0x30
    119e:	79 a9       	ldd	r23, Y+49	; 0x31
    11a0:	8a a9       	ldd	r24, Y+50	; 0x32
    11a2:	9b a9       	ldd	r25, Y+51	; 0x33
    11a4:	0e 94 cf 16 	call	0x2d9e	; 0x2d9e <__fixunssfsi>
    11a8:	64 96       	adiw	r28, 0x14	; 20
    11aa:	6c af       	std	Y+60, r22	; 0x3c
    11ac:	7d af       	std	Y+61, r23	; 0x3d
    11ae:	8e af       	std	Y+62, r24	; 0x3e
    11b0:	9f af       	std	Y+63, r25	; 0x3f
    11b2:	64 97       	sbiw	r28, 0x14	; 20
    11b4:	62 96       	adiw	r28, 0x12	; 18
    11b6:	ae ad       	ldd	r26, Y+62	; 0x3e
    11b8:	bf ad       	ldd	r27, Y+63	; 0x3f
    11ba:	62 97       	sbiw	r28, 0x12	; 18
    11bc:	b8 8f       	std	Y+24, r27	; 0x18
    11be:	af 8b       	std	Y+23, r26	; 0x17
    11c0:	10 c0       	rjmp	.+32     	; 0x11e2 <HAL_LCD_voidWriteData+0x28e>
    11c2:	88 ec       	ldi	r24, 0xC8	; 200
    11c4:	90 e0       	ldi	r25, 0x00	; 0
    11c6:	9a 8f       	std	Y+26, r25	; 0x1a
    11c8:	89 8f       	std	Y+25, r24	; 0x19
    11ca:	89 8d       	ldd	r24, Y+25	; 0x19
    11cc:	9a 8d       	ldd	r25, Y+26	; 0x1a
    11ce:	01 97       	sbiw	r24, 0x01	; 1
    11d0:	f1 f7       	brne	.-4      	; 0x11ce <HAL_LCD_voidWriteData+0x27a>
    11d2:	9a 8f       	std	Y+26, r25	; 0x1a
    11d4:	89 8f       	std	Y+25, r24	; 0x19
    11d6:	00 00       	nop
    11d8:	8f 89       	ldd	r24, Y+23	; 0x17
    11da:	98 8d       	ldd	r25, Y+24	; 0x18
    11dc:	01 97       	sbiw	r24, 0x01	; 1
    11de:	98 8f       	std	Y+24, r25	; 0x18
    11e0:	8f 8b       	std	Y+23, r24	; 0x17
    11e2:	8f 89       	ldd	r24, Y+23	; 0x17
    11e4:	98 8d       	ldd	r25, Y+24	; 0x18
    11e6:	89 2b       	or	r24, r25
    11e8:	61 f7       	brne	.-40     	; 0x11c2 <HAL_LCD_voidWriteData+0x26e>
    11ea:	1d c0       	rjmp	.+58     	; 0x1226 <HAL_LCD_voidWriteData+0x2d2>
    11ec:	6b 89       	ldd	r22, Y+19	; 0x13
    11ee:	7c 89       	ldd	r23, Y+20	; 0x14
    11f0:	8d 89       	ldd	r24, Y+21	; 0x15
    11f2:	9e 89       	ldd	r25, Y+22	; 0x16
    11f4:	0e 94 cf 16 	call	0x2d9e	; 0x2d9e <__fixunssfsi>
    11f8:	68 96       	adiw	r28, 0x18	; 24
    11fa:	6c af       	std	Y+60, r22	; 0x3c
    11fc:	7d af       	std	Y+61, r23	; 0x3d
    11fe:	8e af       	std	Y+62, r24	; 0x3e
    1200:	9f af       	std	Y+63, r25	; 0x3f
    1202:	68 97       	sbiw	r28, 0x18	; 24
    1204:	66 96       	adiw	r28, 0x16	; 22
    1206:	ee ad       	ldd	r30, Y+62	; 0x3e
    1208:	ff ad       	ldd	r31, Y+63	; 0x3f
    120a:	66 97       	sbiw	r28, 0x16	; 22
    120c:	f8 8f       	std	Y+24, r31	; 0x18
    120e:	ef 8b       	std	Y+23, r30	; 0x17
    1210:	8f 89       	ldd	r24, Y+23	; 0x17
    1212:	98 8d       	ldd	r25, Y+24	; 0x18
    1214:	9c 8f       	std	Y+28, r25	; 0x1c
    1216:	8b 8f       	std	Y+27, r24	; 0x1b
    1218:	8b 8d       	ldd	r24, Y+27	; 0x1b
    121a:	9c 8d       	ldd	r25, Y+28	; 0x1c
    121c:	01 97       	sbiw	r24, 0x01	; 1
    121e:	f1 f7       	brne	.-4      	; 0x121c <HAL_LCD_voidWriteData+0x2c8>
    1220:	9c 8f       	std	Y+28, r25	; 0x1c
    1222:	8b 8f       	std	Y+27, r24	; 0x1b
    1224:	00 00       	nop
    1226:	40 e0       	ldi	r20, 0x00	; 0
    1228:	63 e0       	ldi	r22, 0x03	; 3
    122a:	82 e0       	ldi	r24, 0x02	; 2
    122c:	0e 94 46 01 	call	0x28c	; 0x28c <MCAL_DIO_u8SetPinValue>
    1230:	41 e0       	ldi	r20, 0x01	; 1
    1232:	61 e0       	ldi	r22, 0x01	; 1
    1234:	82 e0       	ldi	r24, 0x02	; 2
    1236:	0e 94 46 01 	call	0x28c	; 0x28c <MCAL_DIO_u8SetPinValue>
    123a:	40 e0       	ldi	r20, 0x00	; 0
    123c:	62 e0       	ldi	r22, 0x02	; 2
    123e:	82 e0       	ldi	r24, 0x02	; 2
    1240:	0e 94 46 01 	call	0x28c	; 0x28c <MCAL_DIO_u8SetPinValue>
    1244:	85 e3       	ldi	r24, 0x35	; 53
    1246:	90 e0       	ldi	r25, 0x00	; 0
    1248:	dc 01       	movw	r26, r24
    124a:	8c 91       	ld	r24, X
    124c:	28 2f       	mov	r18, r24
    124e:	2f 70       	andi	r18, 0x0F	; 15
    1250:	8b a5       	ldd	r24, Y+43	; 0x2b
    1252:	88 2f       	mov	r24, r24
    1254:	90 e0       	ldi	r25, 0x00	; 0
    1256:	82 95       	swap	r24
    1258:	92 95       	swap	r25
    125a:	90 7f       	andi	r25, 0xF0	; 240
    125c:	98 27       	eor	r25, r24
    125e:	80 7f       	andi	r24, 0xF0	; 240
    1260:	98 27       	eor	r25, r24
    1262:	28 2b       	or	r18, r24
    1264:	85 e3       	ldi	r24, 0x35	; 53
    1266:	90 e0       	ldi	r25, 0x00	; 0
    1268:	fc 01       	movw	r30, r24
    126a:	20 83       	st	Z, r18
    126c:	41 e0       	ldi	r20, 0x01	; 1
    126e:	63 e0       	ldi	r22, 0x03	; 3
    1270:	82 e0       	ldi	r24, 0x02	; 2
    1272:	0e 94 46 01 	call	0x28c	; 0x28c <MCAL_DIO_u8SetPinValue>
    1276:	80 e0       	ldi	r24, 0x00	; 0
    1278:	90 e0       	ldi	r25, 0x00	; 0
    127a:	a0 e0       	ldi	r26, 0x00	; 0
    127c:	b0 e4       	ldi	r27, 0x40	; 64
    127e:	89 83       	std	Y+1, r24	; 0x01
    1280:	9a 83       	std	Y+2, r25	; 0x02
    1282:	ab 83       	std	Y+3, r26	; 0x03
    1284:	bc 83       	std	Y+4, r27	; 0x04
    1286:	20 e0       	ldi	r18, 0x00	; 0
    1288:	30 e0       	ldi	r19, 0x00	; 0
    128a:	4a ef       	ldi	r20, 0xFA	; 250
    128c:	54 e4       	ldi	r21, 0x44	; 68
    128e:	69 81       	ldd	r22, Y+1	; 0x01
    1290:	7a 81       	ldd	r23, Y+2	; 0x02
    1292:	8b 81       	ldd	r24, Y+3	; 0x03
    1294:	9c 81       	ldd	r25, Y+4	; 0x04
    1296:	0e 94 50 17 	call	0x2ea0	; 0x2ea0 <__mulsf3>
    129a:	6c 96       	adiw	r28, 0x1c	; 28
    129c:	6c af       	std	Y+60, r22	; 0x3c
    129e:	7d af       	std	Y+61, r23	; 0x3d
    12a0:	8e af       	std	Y+62, r24	; 0x3e
    12a2:	9f af       	std	Y+63, r25	; 0x3f
    12a4:	6c 97       	sbiw	r28, 0x1c	; 28
    12a6:	6c 96       	adiw	r28, 0x1c	; 28
    12a8:	8c ad       	ldd	r24, Y+60	; 0x3c
    12aa:	9d ad       	ldd	r25, Y+61	; 0x3d
    12ac:	ae ad       	ldd	r26, Y+62	; 0x3e
    12ae:	bf ad       	ldd	r27, Y+63	; 0x3f
    12b0:	6c 97       	sbiw	r28, 0x1c	; 28
    12b2:	8d 83       	std	Y+5, r24	; 0x05
    12b4:	9e 83       	std	Y+6, r25	; 0x06
    12b6:	af 83       	std	Y+7, r26	; 0x07
    12b8:	b8 87       	std	Y+8, r27	; 0x08
    12ba:	20 e0       	ldi	r18, 0x00	; 0
    12bc:	30 e0       	ldi	r19, 0x00	; 0
    12be:	40 e8       	ldi	r20, 0x80	; 128
    12c0:	5f e3       	ldi	r21, 0x3F	; 63
    12c2:	6d 81       	ldd	r22, Y+5	; 0x05
    12c4:	7e 81       	ldd	r23, Y+6	; 0x06
    12c6:	8f 81       	ldd	r24, Y+7	; 0x07
    12c8:	98 85       	ldd	r25, Y+8	; 0x08
    12ca:	0e 94 ca 16 	call	0x2d94	; 0x2d94 <__cmpsf2>
    12ce:	88 23       	and	r24, r24
    12d0:	2c f4       	brge	.+10     	; 0x12dc <HAL_LCD_voidWriteData+0x388>
    12d2:	81 e0       	ldi	r24, 0x01	; 1
    12d4:	90 e0       	ldi	r25, 0x00	; 0
    12d6:	9a 87       	std	Y+10, r25	; 0x0a
    12d8:	89 87       	std	Y+9, r24	; 0x09
    12da:	61 c0       	rjmp	.+194    	; 0x139e <HAL_LCD_voidWriteData+0x44a>
    12dc:	20 e0       	ldi	r18, 0x00	; 0
    12de:	3f ef       	ldi	r19, 0xFF	; 255
    12e0:	4f e7       	ldi	r20, 0x7F	; 127
    12e2:	57 e4       	ldi	r21, 0x47	; 71
    12e4:	6d 81       	ldd	r22, Y+5	; 0x05
    12e6:	7e 81       	ldd	r23, Y+6	; 0x06
    12e8:	8f 81       	ldd	r24, Y+7	; 0x07
    12ea:	98 85       	ldd	r25, Y+8	; 0x08
    12ec:	0e 94 4b 17 	call	0x2e96	; 0x2e96 <__gesf2>
    12f0:	18 16       	cp	r1, r24
    12f2:	0c f0       	brlt	.+2      	; 0x12f6 <HAL_LCD_voidWriteData+0x3a2>
    12f4:	42 c0       	rjmp	.+132    	; 0x137a <HAL_LCD_voidWriteData+0x426>
    12f6:	20 e0       	ldi	r18, 0x00	; 0
    12f8:	30 e0       	ldi	r19, 0x00	; 0
    12fa:	40 e2       	ldi	r20, 0x20	; 32
    12fc:	51 e4       	ldi	r21, 0x41	; 65
    12fe:	69 81       	ldd	r22, Y+1	; 0x01
    1300:	7a 81       	ldd	r23, Y+2	; 0x02
    1302:	8b 81       	ldd	r24, Y+3	; 0x03
    1304:	9c 81       	ldd	r25, Y+4	; 0x04
    1306:	0e 94 50 17 	call	0x2ea0	; 0x2ea0 <__mulsf3>
    130a:	a0 96       	adiw	r28, 0x20	; 32
    130c:	6c af       	std	Y+60, r22	; 0x3c
    130e:	7d af       	std	Y+61, r23	; 0x3d
    1310:	8e af       	std	Y+62, r24	; 0x3e
    1312:	9f af       	std	Y+63, r25	; 0x3f
    1314:	a0 97       	sbiw	r28, 0x20	; 32
    1316:	a0 96       	adiw	r28, 0x20	; 32
    1318:	8c ad       	ldd	r24, Y+60	; 0x3c
    131a:	9d ad       	ldd	r25, Y+61	; 0x3d
    131c:	ae ad       	ldd	r26, Y+62	; 0x3e
    131e:	bf ad       	ldd	r27, Y+63	; 0x3f
    1320:	a0 97       	sbiw	r28, 0x20	; 32
    1322:	8c a7       	std	Y+44, r24	; 0x2c
    1324:	9d a7       	std	Y+45, r25	; 0x2d
    1326:	ae a7       	std	Y+46, r26	; 0x2e
    1328:	bf a7       	std	Y+47, r27	; 0x2f
    132a:	6c a5       	ldd	r22, Y+44	; 0x2c
    132c:	7d a5       	ldd	r23, Y+45	; 0x2d
    132e:	8e a5       	ldd	r24, Y+46	; 0x2e
    1330:	9f a5       	ldd	r25, Y+47	; 0x2f
    1332:	0e 94 cf 16 	call	0x2d9e	; 0x2d9e <__fixunssfsi>
    1336:	a4 96       	adiw	r28, 0x24	; 36
    1338:	6c af       	std	Y+60, r22	; 0x3c
    133a:	7d af       	std	Y+61, r23	; 0x3d
    133c:	8e af       	std	Y+62, r24	; 0x3e
    133e:	9f af       	std	Y+63, r25	; 0x3f
    1340:	a4 97       	sbiw	r28, 0x24	; 36
    1342:	a2 96       	adiw	r28, 0x22	; 34
    1344:	ae ad       	ldd	r26, Y+62	; 0x3e
    1346:	bf ad       	ldd	r27, Y+63	; 0x3f
    1348:	a2 97       	sbiw	r28, 0x22	; 34
    134a:	ba 87       	std	Y+10, r27	; 0x0a
    134c:	a9 87       	std	Y+9, r26	; 0x09
    134e:	10 c0       	rjmp	.+32     	; 0x1370 <HAL_LCD_voidWriteData+0x41c>
    1350:	88 ec       	ldi	r24, 0xC8	; 200
    1352:	90 e0       	ldi	r25, 0x00	; 0
    1354:	9c 87       	std	Y+12, r25	; 0x0c
    1356:	8b 87       	std	Y+11, r24	; 0x0b
    1358:	8b 85       	ldd	r24, Y+11	; 0x0b
    135a:	9c 85       	ldd	r25, Y+12	; 0x0c
    135c:	01 97       	sbiw	r24, 0x01	; 1
    135e:	f1 f7       	brne	.-4      	; 0x135c <HAL_LCD_voidWriteData+0x408>
    1360:	9c 87       	std	Y+12, r25	; 0x0c
    1362:	8b 87       	std	Y+11, r24	; 0x0b
    1364:	00 00       	nop
    1366:	89 85       	ldd	r24, Y+9	; 0x09
    1368:	9a 85       	ldd	r25, Y+10	; 0x0a
    136a:	01 97       	sbiw	r24, 0x01	; 1
    136c:	9a 87       	std	Y+10, r25	; 0x0a
    136e:	89 87       	std	Y+9, r24	; 0x09
    1370:	89 85       	ldd	r24, Y+9	; 0x09
    1372:	9a 85       	ldd	r25, Y+10	; 0x0a
    1374:	89 2b       	or	r24, r25
    1376:	61 f7       	brne	.-40     	; 0x1350 <HAL_LCD_voidWriteData+0x3fc>
    1378:	1d c0       	rjmp	.+58     	; 0x13b4 <HAL_LCD_voidWriteData+0x460>
    137a:	6d 81       	ldd	r22, Y+5	; 0x05
    137c:	7e 81       	ldd	r23, Y+6	; 0x06
    137e:	8f 81       	ldd	r24, Y+7	; 0x07
    1380:	98 85       	ldd	r25, Y+8	; 0x08
    1382:	0e 94 cf 16 	call	0x2d9e	; 0x2d9e <__fixunssfsi>
    1386:	a8 96       	adiw	r28, 0x28	; 40
    1388:	6c af       	std	Y+60, r22	; 0x3c
    138a:	7d af       	std	Y+61, r23	; 0x3d
    138c:	8e af       	std	Y+62, r24	; 0x3e
    138e:	9f af       	std	Y+63, r25	; 0x3f
    1390:	a8 97       	sbiw	r28, 0x28	; 40
    1392:	a6 96       	adiw	r28, 0x26	; 38
    1394:	ee ad       	ldd	r30, Y+62	; 0x3e
    1396:	ff ad       	ldd	r31, Y+63	; 0x3f
    1398:	a6 97       	sbiw	r28, 0x26	; 38
    139a:	fa 87       	std	Y+10, r31	; 0x0a
    139c:	e9 87       	std	Y+9, r30	; 0x09
    139e:	89 85       	ldd	r24, Y+9	; 0x09
    13a0:	9a 85       	ldd	r25, Y+10	; 0x0a
    13a2:	9e 87       	std	Y+14, r25	; 0x0e
    13a4:	8d 87       	std	Y+13, r24	; 0x0d
    13a6:	8d 85       	ldd	r24, Y+13	; 0x0d
    13a8:	9e 85       	ldd	r25, Y+14	; 0x0e
    13aa:	01 97       	sbiw	r24, 0x01	; 1
    13ac:	f1 f7       	brne	.-4      	; 0x13aa <HAL_LCD_voidWriteData+0x456>
    13ae:	9e 87       	std	Y+14, r25	; 0x0e
    13b0:	8d 87       	std	Y+13, r24	; 0x0d
    13b2:	00 00       	nop
    13b4:	40 e0       	ldi	r20, 0x00	; 0
    13b6:	63 e0       	ldi	r22, 0x03	; 3
    13b8:	82 e0       	ldi	r24, 0x02	; 2
    13ba:	0e 94 46 01 	call	0x28c	; 0x28c <MCAL_DIO_u8SetPinValue>
    13be:	00 00       	nop
    13c0:	c9 59       	subi	r28, 0x99	; 153
    13c2:	df 4f       	sbci	r29, 0xFF	; 255
    13c4:	0f b6       	in	r0, 0x3f	; 63
    13c6:	f8 94       	cli
    13c8:	de bf       	out	0x3e, r29	; 62
    13ca:	0f be       	out	0x3f, r0	; 63
    13cc:	cd bf       	out	0x3d, r28	; 61
    13ce:	df 91       	pop	r29
    13d0:	cf 91       	pop	r28
    13d2:	08 95       	ret

000013d4 <HAL_LCD_voidInit>:
    13d4:	0f 93       	push	r16
    13d6:	1f 93       	push	r17
    13d8:	cf 93       	push	r28
    13da:	df 93       	push	r29
    13dc:	cd b7       	in	r28, 0x3d	; 61
    13de:	de b7       	in	r29, 0x3e	; 62
    13e0:	cc 5c       	subi	r28, 0xCC	; 204
    13e2:	d1 09       	sbc	r29, r1
    13e4:	0f b6       	in	r0, 0x3f	; 63
    13e6:	f8 94       	cli
    13e8:	de bf       	out	0x3e, r29	; 62
    13ea:	0f be       	out	0x3f, r0	; 63
    13ec:	cd bf       	out	0x3d, r28	; 61
    13ee:	6f ef       	ldi	r22, 0xFF	; 255
    13f0:	82 e0       	ldi	r24, 0x02	; 2
    13f2:	0e 94 07 01 	call	0x20e	; 0x20e <MCAL_DIO_u8SetPortDir>
    13f6:	41 e0       	ldi	r20, 0x01	; 1
    13f8:	61 e0       	ldi	r22, 0x01	; 1
    13fa:	82 e0       	ldi	r24, 0x02	; 2
    13fc:	0e 94 49 00 	call	0x92	; 0x92 <MCAL_DIO_u8SetPinDir>
    1400:	41 e0       	ldi	r20, 0x01	; 1
    1402:	62 e0       	ldi	r22, 0x02	; 2
    1404:	82 e0       	ldi	r24, 0x02	; 2
    1406:	0e 94 49 00 	call	0x92	; 0x92 <MCAL_DIO_u8SetPinDir>
    140a:	41 e0       	ldi	r20, 0x01	; 1
    140c:	63 e0       	ldi	r22, 0x03	; 3
    140e:	82 e0       	ldi	r24, 0x02	; 2
    1410:	0e 94 49 00 	call	0x92	; 0x92 <MCAL_DIO_u8SetPinDir>
    1414:	9e 01       	movw	r18, r28
    1416:	29 5b       	subi	r18, 0xB9	; 185
    1418:	3f 4f       	sbci	r19, 0xFF	; 255
    141a:	80 e0       	ldi	r24, 0x00	; 0
    141c:	90 e0       	ldi	r25, 0x00	; 0
    141e:	a0 ef       	ldi	r26, 0xF0	; 240
    1420:	b1 e4       	ldi	r27, 0x41	; 65
    1422:	f9 01       	movw	r30, r18
    1424:	80 83       	st	Z, r24
    1426:	91 83       	std	Z+1, r25	; 0x01
    1428:	a2 83       	std	Z+2, r26	; 0x02
    142a:	b3 83       	std	Z+3, r27	; 0x03
    142c:	8e 01       	movw	r16, r28
    142e:	05 5b       	subi	r16, 0xB5	; 181
    1430:	1f 4f       	sbci	r17, 0xFF	; 255
    1432:	ce 01       	movw	r24, r28
    1434:	89 5b       	subi	r24, 0xB9	; 185
    1436:	9f 4f       	sbci	r25, 0xFF	; 255
    1438:	20 e0       	ldi	r18, 0x00	; 0
    143a:	30 e0       	ldi	r19, 0x00	; 0
    143c:	4a ef       	ldi	r20, 0xFA	; 250
    143e:	54 e4       	ldi	r21, 0x44	; 68
    1440:	dc 01       	movw	r26, r24
    1442:	6d 91       	ld	r22, X+
    1444:	7d 91       	ld	r23, X+
    1446:	8d 91       	ld	r24, X+
    1448:	9c 91       	ld	r25, X
    144a:	0e 94 50 17 	call	0x2ea0	; 0x2ea0 <__mulsf3>
    144e:	e1 96       	adiw	r28, 0x31	; 49
    1450:	6c af       	std	Y+60, r22	; 0x3c
    1452:	7d af       	std	Y+61, r23	; 0x3d
    1454:	8e af       	std	Y+62, r24	; 0x3e
    1456:	9f af       	std	Y+63, r25	; 0x3f
    1458:	e1 97       	sbiw	r28, 0x31	; 49
    145a:	e1 96       	adiw	r28, 0x31	; 49
    145c:	2c ad       	ldd	r18, Y+60	; 0x3c
    145e:	3d ad       	ldd	r19, Y+61	; 0x3d
    1460:	4e ad       	ldd	r20, Y+62	; 0x3e
    1462:	5f ad       	ldd	r21, Y+63	; 0x3f
    1464:	e1 97       	sbiw	r28, 0x31	; 49
    1466:	d8 01       	movw	r26, r16
    1468:	2d 93       	st	X+, r18
    146a:	3d 93       	st	X+, r19
    146c:	4d 93       	st	X+, r20
    146e:	5c 93       	st	X, r21
    1470:	13 97       	sbiw	r26, 0x03	; 3
    1472:	ce 01       	movw	r24, r28
    1474:	85 5b       	subi	r24, 0xB5	; 181
    1476:	9f 4f       	sbci	r25, 0xFF	; 255
    1478:	20 e0       	ldi	r18, 0x00	; 0
    147a:	30 e0       	ldi	r19, 0x00	; 0
    147c:	40 e8       	ldi	r20, 0x80	; 128
    147e:	5f e3       	ldi	r21, 0x3F	; 63
    1480:	fc 01       	movw	r30, r24
    1482:	60 81       	ld	r22, Z
    1484:	71 81       	ldd	r23, Z+1	; 0x01
    1486:	82 81       	ldd	r24, Z+2	; 0x02
    1488:	93 81       	ldd	r25, Z+3	; 0x03
    148a:	0e 94 ca 16 	call	0x2d94	; 0x2d94 <__cmpsf2>
    148e:	88 23       	and	r24, r24
    1490:	4c f4       	brge	.+18     	; 0x14a4 <HAL_LCD_voidInit+0xd0>
    1492:	ce 01       	movw	r24, r28
    1494:	81 5b       	subi	r24, 0xB1	; 177
    1496:	9f 4f       	sbci	r25, 0xFF	; 255
    1498:	21 e0       	ldi	r18, 0x01	; 1
    149a:	30 e0       	ldi	r19, 0x00	; 0
    149c:	dc 01       	movw	r26, r24
    149e:	2d 93       	st	X+, r18
    14a0:	3c 93       	st	X, r19
    14a2:	92 c0       	rjmp	.+292    	; 0x15c8 <HAL_LCD_voidInit+0x1f4>
    14a4:	ce 01       	movw	r24, r28
    14a6:	85 5b       	subi	r24, 0xB5	; 181
    14a8:	9f 4f       	sbci	r25, 0xFF	; 255
    14aa:	20 e0       	ldi	r18, 0x00	; 0
    14ac:	3f ef       	ldi	r19, 0xFF	; 255
    14ae:	4f e7       	ldi	r20, 0x7F	; 127
    14b0:	57 e4       	ldi	r21, 0x47	; 71
    14b2:	fc 01       	movw	r30, r24
    14b4:	60 81       	ld	r22, Z
    14b6:	71 81       	ldd	r23, Z+1	; 0x01
    14b8:	82 81       	ldd	r24, Z+2	; 0x02
    14ba:	93 81       	ldd	r25, Z+3	; 0x03
    14bc:	0e 94 4b 17 	call	0x2e96	; 0x2e96 <__gesf2>
    14c0:	18 16       	cp	r1, r24
    14c2:	0c f0       	brlt	.+2      	; 0x14c6 <HAL_LCD_voidInit+0xf2>
    14c4:	67 c0       	rjmp	.+206    	; 0x1594 <HAL_LCD_voidInit+0x1c0>
    14c6:	ce 01       	movw	r24, r28
    14c8:	89 5b       	subi	r24, 0xB9	; 185
    14ca:	9f 4f       	sbci	r25, 0xFF	; 255
    14cc:	20 e0       	ldi	r18, 0x00	; 0
    14ce:	30 e0       	ldi	r19, 0x00	; 0
    14d0:	40 e2       	ldi	r20, 0x20	; 32
    14d2:	51 e4       	ldi	r21, 0x41	; 65
    14d4:	dc 01       	movw	r26, r24
    14d6:	6d 91       	ld	r22, X+
    14d8:	7d 91       	ld	r23, X+
    14da:	8d 91       	ld	r24, X+
    14dc:	9c 91       	ld	r25, X
    14de:	0e 94 50 17 	call	0x2ea0	; 0x2ea0 <__mulsf3>
    14e2:	e5 96       	adiw	r28, 0x35	; 53
    14e4:	6c af       	std	Y+60, r22	; 0x3c
    14e6:	7d af       	std	Y+61, r23	; 0x3d
    14e8:	8e af       	std	Y+62, r24	; 0x3e
    14ea:	9f af       	std	Y+63, r25	; 0x3f
    14ec:	e5 97       	sbiw	r28, 0x35	; 53
    14ee:	e5 96       	adiw	r28, 0x35	; 53
    14f0:	2c ad       	ldd	r18, Y+60	; 0x3c
    14f2:	3d ad       	ldd	r19, Y+61	; 0x3d
    14f4:	4e ad       	ldd	r20, Y+62	; 0x3e
    14f6:	5f ad       	ldd	r21, Y+63	; 0x3f
    14f8:	e5 97       	sbiw	r28, 0x35	; 53
    14fa:	ad 96       	adiw	r28, 0x2d	; 45
    14fc:	2c af       	std	Y+60, r18	; 0x3c
    14fe:	3d af       	std	Y+61, r19	; 0x3d
    1500:	4e af       	std	Y+62, r20	; 0x3e
    1502:	5f af       	std	Y+63, r21	; 0x3f
    1504:	ad 97       	sbiw	r28, 0x2d	; 45
    1506:	8e 01       	movw	r16, r28
    1508:	01 5b       	subi	r16, 0xB1	; 177
    150a:	1f 4f       	sbci	r17, 0xFF	; 255
    150c:	ad 96       	adiw	r28, 0x2d	; 45
    150e:	6c ad       	ldd	r22, Y+60	; 0x3c
    1510:	7d ad       	ldd	r23, Y+61	; 0x3d
    1512:	8e ad       	ldd	r24, Y+62	; 0x3e
    1514:	9f ad       	ldd	r25, Y+63	; 0x3f
    1516:	ad 97       	sbiw	r28, 0x2d	; 45
    1518:	0e 94 cf 16 	call	0x2d9e	; 0x2d9e <__fixunssfsi>
    151c:	e9 96       	adiw	r28, 0x39	; 57
    151e:	6c af       	std	Y+60, r22	; 0x3c
    1520:	7d af       	std	Y+61, r23	; 0x3d
    1522:	8e af       	std	Y+62, r24	; 0x3e
    1524:	9f af       	std	Y+63, r25	; 0x3f
    1526:	e9 97       	sbiw	r28, 0x39	; 57
    1528:	e7 96       	adiw	r28, 0x37	; 55
    152a:	ee ad       	ldd	r30, Y+62	; 0x3e
    152c:	ff ad       	ldd	r31, Y+63	; 0x3f
    152e:	e7 97       	sbiw	r28, 0x37	; 55
    1530:	d8 01       	movw	r26, r16
    1532:	ed 93       	st	X+, r30
    1534:	fc 93       	st	X, r31
    1536:	25 c0       	rjmp	.+74     	; 0x1582 <HAL_LCD_voidInit+0x1ae>
    1538:	ce 01       	movw	r24, r28
    153a:	8f 5a       	subi	r24, 0xAF	; 175
    153c:	9f 4f       	sbci	r25, 0xFF	; 255
    153e:	28 ec       	ldi	r18, 0xC8	; 200
    1540:	30 e0       	ldi	r19, 0x00	; 0
    1542:	dc 01       	movw	r26, r24
    1544:	2d 93       	st	X+, r18
    1546:	3c 93       	st	X, r19
    1548:	ce 01       	movw	r24, r28
    154a:	8f 5a       	subi	r24, 0xAF	; 175
    154c:	9f 4f       	sbci	r25, 0xFF	; 255
    154e:	fc 01       	movw	r30, r24
    1550:	80 81       	ld	r24, Z
    1552:	91 81       	ldd	r25, Z+1	; 0x01
    1554:	01 97       	sbiw	r24, 0x01	; 1
    1556:	f1 f7       	brne	.-4      	; 0x1554 <HAL_LCD_voidInit+0x180>
    1558:	9e 01       	movw	r18, r28
    155a:	2f 5a       	subi	r18, 0xAF	; 175
    155c:	3f 4f       	sbci	r19, 0xFF	; 255
    155e:	d9 01       	movw	r26, r18
    1560:	8d 93       	st	X+, r24
    1562:	9c 93       	st	X, r25
    1564:	00 00       	nop
    1566:	ce 01       	movw	r24, r28
    1568:	81 5b       	subi	r24, 0xB1	; 177
    156a:	9f 4f       	sbci	r25, 0xFF	; 255
    156c:	9e 01       	movw	r18, r28
    156e:	21 5b       	subi	r18, 0xB1	; 177
    1570:	3f 4f       	sbci	r19, 0xFF	; 255
    1572:	f9 01       	movw	r30, r18
    1574:	20 81       	ld	r18, Z
    1576:	31 81       	ldd	r19, Z+1	; 0x01
    1578:	21 50       	subi	r18, 0x01	; 1
    157a:	31 09       	sbc	r19, r1
    157c:	dc 01       	movw	r26, r24
    157e:	2d 93       	st	X+, r18
    1580:	3c 93       	st	X, r19
    1582:	ce 01       	movw	r24, r28
    1584:	81 5b       	subi	r24, 0xB1	; 177
    1586:	9f 4f       	sbci	r25, 0xFF	; 255
    1588:	fc 01       	movw	r30, r24
    158a:	80 81       	ld	r24, Z
    158c:	91 81       	ldd	r25, Z+1	; 0x01
    158e:	89 2b       	or	r24, r25
    1590:	99 f6       	brne	.-90     	; 0x1538 <HAL_LCD_voidInit+0x164>
    1592:	35 c0       	rjmp	.+106    	; 0x15fe <HAL_LCD_voidInit+0x22a>
    1594:	8e 01       	movw	r16, r28
    1596:	01 5b       	subi	r16, 0xB1	; 177
    1598:	1f 4f       	sbci	r17, 0xFF	; 255
    159a:	ce 01       	movw	r24, r28
    159c:	85 5b       	subi	r24, 0xB5	; 181
    159e:	9f 4f       	sbci	r25, 0xFF	; 255
    15a0:	dc 01       	movw	r26, r24
    15a2:	6d 91       	ld	r22, X+
    15a4:	7d 91       	ld	r23, X+
    15a6:	8d 91       	ld	r24, X+
    15a8:	9c 91       	ld	r25, X
    15aa:	0e 94 cf 16 	call	0x2d9e	; 0x2d9e <__fixunssfsi>
    15ae:	ed 96       	adiw	r28, 0x3d	; 61
    15b0:	6c af       	std	Y+60, r22	; 0x3c
    15b2:	7d af       	std	Y+61, r23	; 0x3d
    15b4:	8e af       	std	Y+62, r24	; 0x3e
    15b6:	9f af       	std	Y+63, r25	; 0x3f
    15b8:	ed 97       	sbiw	r28, 0x3d	; 61
    15ba:	eb 96       	adiw	r28, 0x3b	; 59
    15bc:	2e ad       	ldd	r18, Y+62	; 0x3e
    15be:	3f ad       	ldd	r19, Y+63	; 0x3f
    15c0:	eb 97       	sbiw	r28, 0x3b	; 59
    15c2:	f8 01       	movw	r30, r16
    15c4:	31 83       	std	Z+1, r19	; 0x01
    15c6:	20 83       	st	Z, r18
    15c8:	ce 01       	movw	r24, r28
    15ca:	8d 5a       	subi	r24, 0xAD	; 173
    15cc:	9f 4f       	sbci	r25, 0xFF	; 255
    15ce:	9e 01       	movw	r18, r28
    15d0:	21 5b       	subi	r18, 0xB1	; 177
    15d2:	3f 4f       	sbci	r19, 0xFF	; 255
    15d4:	d9 01       	movw	r26, r18
    15d6:	2d 91       	ld	r18, X+
    15d8:	3c 91       	ld	r19, X
    15da:	fc 01       	movw	r30, r24
    15dc:	31 83       	std	Z+1, r19	; 0x01
    15de:	20 83       	st	Z, r18
    15e0:	ce 01       	movw	r24, r28
    15e2:	8d 5a       	subi	r24, 0xAD	; 173
    15e4:	9f 4f       	sbci	r25, 0xFF	; 255
    15e6:	dc 01       	movw	r26, r24
    15e8:	8d 91       	ld	r24, X+
    15ea:	9c 91       	ld	r25, X
    15ec:	01 97       	sbiw	r24, 0x01	; 1
    15ee:	f1 f7       	brne	.-4      	; 0x15ec <HAL_LCD_voidInit+0x218>
    15f0:	9e 01       	movw	r18, r28
    15f2:	2d 5a       	subi	r18, 0xAD	; 173
    15f4:	3f 4f       	sbci	r19, 0xFF	; 255
    15f6:	f9 01       	movw	r30, r18
    15f8:	91 83       	std	Z+1, r25	; 0x01
    15fa:	80 83       	st	Z, r24
    15fc:	00 00       	nop
    15fe:	83 e3       	ldi	r24, 0x33	; 51
    1600:	0e 94 6a 05 	call	0xad4	; 0xad4 <HAL_LCD_voidWriteCommand>
    1604:	80 e0       	ldi	r24, 0x00	; 0
    1606:	90 e0       	ldi	r25, 0x00	; 0
    1608:	a0 e0       	ldi	r26, 0x00	; 0
    160a:	b0 e4       	ldi	r27, 0x40	; 64
    160c:	89 af       	std	Y+57, r24	; 0x39
    160e:	9a af       	std	Y+58, r25	; 0x3a
    1610:	ab af       	std	Y+59, r26	; 0x3b
    1612:	bc af       	std	Y+60, r27	; 0x3c
    1614:	20 e0       	ldi	r18, 0x00	; 0
    1616:	30 e0       	ldi	r19, 0x00	; 0
    1618:	4a ef       	ldi	r20, 0xFA	; 250
    161a:	54 e4       	ldi	r21, 0x44	; 68
    161c:	69 ad       	ldd	r22, Y+57	; 0x39
    161e:	7a ad       	ldd	r23, Y+58	; 0x3a
    1620:	8b ad       	ldd	r24, Y+59	; 0x3b
    1622:	9c ad       	ldd	r25, Y+60	; 0x3c
    1624:	0e 94 50 17 	call	0x2ea0	; 0x2ea0 <__mulsf3>
    1628:	c3 58       	subi	r28, 0x83	; 131
    162a:	df 4f       	sbci	r29, 0xFF	; 255
    162c:	68 83       	st	Y, r22
    162e:	79 83       	std	Y+1, r23	; 0x01
    1630:	8a 83       	std	Y+2, r24	; 0x02
    1632:	9b 83       	std	Y+3, r25	; 0x03
    1634:	cd 57       	subi	r28, 0x7D	; 125
    1636:	d0 40       	sbci	r29, 0x00	; 0
    1638:	ce 01       	movw	r24, r28
    163a:	cd 96       	adiw	r24, 0x3d	; 61
    163c:	c3 58       	subi	r28, 0x83	; 131
    163e:	df 4f       	sbci	r29, 0xFF	; 255
    1640:	28 81       	ld	r18, Y
    1642:	39 81       	ldd	r19, Y+1	; 0x01
    1644:	4a 81       	ldd	r20, Y+2	; 0x02
    1646:	5b 81       	ldd	r21, Y+3	; 0x03
    1648:	cd 57       	subi	r28, 0x7D	; 125
    164a:	d0 40       	sbci	r29, 0x00	; 0
    164c:	dc 01       	movw	r26, r24
    164e:	2d 93       	st	X+, r18
    1650:	3d 93       	st	X+, r19
    1652:	4d 93       	st	X+, r20
    1654:	5c 93       	st	X, r21
    1656:	13 97       	sbiw	r26, 0x03	; 3
    1658:	20 e0       	ldi	r18, 0x00	; 0
    165a:	30 e0       	ldi	r19, 0x00	; 0
    165c:	40 e8       	ldi	r20, 0x80	; 128
    165e:	5f e3       	ldi	r21, 0x3F	; 63
    1660:	ce 01       	movw	r24, r28
    1662:	cd 96       	adiw	r24, 0x3d	; 61
    1664:	fc 01       	movw	r30, r24
    1666:	60 81       	ld	r22, Z
    1668:	71 81       	ldd	r23, Z+1	; 0x01
    166a:	82 81       	ldd	r24, Z+2	; 0x02
    166c:	93 81       	ldd	r25, Z+3	; 0x03
    166e:	0e 94 ca 16 	call	0x2d94	; 0x2d94 <__cmpsf2>
    1672:	88 23       	and	r24, r24
    1674:	4c f4       	brge	.+18     	; 0x1688 <HAL_LCD_voidInit+0x2b4>
    1676:	ce 01       	movw	r24, r28
    1678:	8f 5b       	subi	r24, 0xBF	; 191
    167a:	9f 4f       	sbci	r25, 0xFF	; 255
    167c:	21 e0       	ldi	r18, 0x01	; 1
    167e:	30 e0       	ldi	r19, 0x00	; 0
    1680:	dc 01       	movw	r26, r24
    1682:	2d 93       	st	X+, r18
    1684:	3c 93       	st	X, r19
    1686:	98 c0       	rjmp	.+304    	; 0x17b8 <HAL_LCD_voidInit+0x3e4>
    1688:	20 e0       	ldi	r18, 0x00	; 0
    168a:	3f ef       	ldi	r19, 0xFF	; 255
    168c:	4f e7       	ldi	r20, 0x7F	; 127
    168e:	57 e4       	ldi	r21, 0x47	; 71
    1690:	ce 01       	movw	r24, r28
    1692:	cd 96       	adiw	r24, 0x3d	; 61
    1694:	fc 01       	movw	r30, r24
    1696:	60 81       	ld	r22, Z
    1698:	71 81       	ldd	r23, Z+1	; 0x01
    169a:	82 81       	ldd	r24, Z+2	; 0x02
    169c:	93 81       	ldd	r25, Z+3	; 0x03
    169e:	0e 94 4b 17 	call	0x2e96	; 0x2e96 <__gesf2>
    16a2:	18 16       	cp	r1, r24
    16a4:	0c f0       	brlt	.+2      	; 0x16a8 <HAL_LCD_voidInit+0x2d4>
    16a6:	6b c0       	rjmp	.+214    	; 0x177e <HAL_LCD_voidInit+0x3aa>
    16a8:	20 e0       	ldi	r18, 0x00	; 0
    16aa:	30 e0       	ldi	r19, 0x00	; 0
    16ac:	40 e2       	ldi	r20, 0x20	; 32
    16ae:	51 e4       	ldi	r21, 0x41	; 65
    16b0:	69 ad       	ldd	r22, Y+57	; 0x39
    16b2:	7a ad       	ldd	r23, Y+58	; 0x3a
    16b4:	8b ad       	ldd	r24, Y+59	; 0x3b
    16b6:	9c ad       	ldd	r25, Y+60	; 0x3c
    16b8:	0e 94 50 17 	call	0x2ea0	; 0x2ea0 <__mulsf3>
    16bc:	cf 57       	subi	r28, 0x7F	; 127
    16be:	df 4f       	sbci	r29, 0xFF	; 255
    16c0:	68 83       	st	Y, r22
    16c2:	79 83       	std	Y+1, r23	; 0x01
    16c4:	8a 83       	std	Y+2, r24	; 0x02
    16c6:	9b 83       	std	Y+3, r25	; 0x03
    16c8:	c1 58       	subi	r28, 0x81	; 129
    16ca:	d0 40       	sbci	r29, 0x00	; 0
    16cc:	cf 57       	subi	r28, 0x7F	; 127
    16ce:	df 4f       	sbci	r29, 0xFF	; 255
    16d0:	28 81       	ld	r18, Y
    16d2:	39 81       	ldd	r19, Y+1	; 0x01
    16d4:	4a 81       	ldd	r20, Y+2	; 0x02
    16d6:	5b 81       	ldd	r21, Y+3	; 0x03
    16d8:	c1 58       	subi	r28, 0x81	; 129
    16da:	d0 40       	sbci	r29, 0x00	; 0
    16dc:	a9 96       	adiw	r28, 0x29	; 41
    16de:	2c af       	std	Y+60, r18	; 0x3c
    16e0:	3d af       	std	Y+61, r19	; 0x3d
    16e2:	4e af       	std	Y+62, r20	; 0x3e
    16e4:	5f af       	std	Y+63, r21	; 0x3f
    16e6:	a9 97       	sbiw	r28, 0x29	; 41
    16e8:	8e 01       	movw	r16, r28
    16ea:	0f 5b       	subi	r16, 0xBF	; 191
    16ec:	1f 4f       	sbci	r17, 0xFF	; 255
    16ee:	a9 96       	adiw	r28, 0x29	; 41
    16f0:	6c ad       	ldd	r22, Y+60	; 0x3c
    16f2:	7d ad       	ldd	r23, Y+61	; 0x3d
    16f4:	8e ad       	ldd	r24, Y+62	; 0x3e
    16f6:	9f ad       	ldd	r25, Y+63	; 0x3f
    16f8:	a9 97       	sbiw	r28, 0x29	; 41
    16fa:	0e 94 cf 16 	call	0x2d9e	; 0x2d9e <__fixunssfsi>
    16fe:	cb 57       	subi	r28, 0x7B	; 123
    1700:	df 4f       	sbci	r29, 0xFF	; 255
    1702:	68 83       	st	Y, r22
    1704:	79 83       	std	Y+1, r23	; 0x01
    1706:	8a 83       	std	Y+2, r24	; 0x02
    1708:	9b 83       	std	Y+3, r25	; 0x03
    170a:	c5 58       	subi	r28, 0x85	; 133
    170c:	d0 40       	sbci	r29, 0x00	; 0
    170e:	cb 57       	subi	r28, 0x7B	; 123
    1710:	df 4f       	sbci	r29, 0xFF	; 255
    1712:	e8 81       	ld	r30, Y
    1714:	f9 81       	ldd	r31, Y+1	; 0x01
    1716:	c5 58       	subi	r28, 0x85	; 133
    1718:	d0 40       	sbci	r29, 0x00	; 0
    171a:	d8 01       	movw	r26, r16
    171c:	ed 93       	st	X+, r30
    171e:	fc 93       	st	X, r31
    1720:	25 c0       	rjmp	.+74     	; 0x176c <HAL_LCD_voidInit+0x398>
    1722:	ce 01       	movw	r24, r28
    1724:	8d 5b       	subi	r24, 0xBD	; 189
    1726:	9f 4f       	sbci	r25, 0xFF	; 255
    1728:	28 ec       	ldi	r18, 0xC8	; 200
    172a:	30 e0       	ldi	r19, 0x00	; 0
    172c:	dc 01       	movw	r26, r24
    172e:	2d 93       	st	X+, r18
    1730:	3c 93       	st	X, r19
    1732:	ce 01       	movw	r24, r28
    1734:	8d 5b       	subi	r24, 0xBD	; 189
    1736:	9f 4f       	sbci	r25, 0xFF	; 255
    1738:	fc 01       	movw	r30, r24
    173a:	80 81       	ld	r24, Z
    173c:	91 81       	ldd	r25, Z+1	; 0x01
    173e:	01 97       	sbiw	r24, 0x01	; 1
    1740:	f1 f7       	brne	.-4      	; 0x173e <HAL_LCD_voidInit+0x36a>
    1742:	9e 01       	movw	r18, r28
    1744:	2d 5b       	subi	r18, 0xBD	; 189
    1746:	3f 4f       	sbci	r19, 0xFF	; 255
    1748:	d9 01       	movw	r26, r18
    174a:	8d 93       	st	X+, r24
    174c:	9c 93       	st	X, r25
    174e:	00 00       	nop
    1750:	ce 01       	movw	r24, r28
    1752:	8f 5b       	subi	r24, 0xBF	; 191
    1754:	9f 4f       	sbci	r25, 0xFF	; 255
    1756:	9e 01       	movw	r18, r28
    1758:	2f 5b       	subi	r18, 0xBF	; 191
    175a:	3f 4f       	sbci	r19, 0xFF	; 255
    175c:	f9 01       	movw	r30, r18
    175e:	20 81       	ld	r18, Z
    1760:	31 81       	ldd	r19, Z+1	; 0x01
    1762:	21 50       	subi	r18, 0x01	; 1
    1764:	31 09       	sbc	r19, r1
    1766:	dc 01       	movw	r26, r24
    1768:	2d 93       	st	X+, r18
    176a:	3c 93       	st	X, r19
    176c:	ce 01       	movw	r24, r28
    176e:	8f 5b       	subi	r24, 0xBF	; 191
    1770:	9f 4f       	sbci	r25, 0xFF	; 255
    1772:	fc 01       	movw	r30, r24
    1774:	80 81       	ld	r24, Z
    1776:	91 81       	ldd	r25, Z+1	; 0x01
    1778:	89 2b       	or	r24, r25
    177a:	99 f6       	brne	.-90     	; 0x1722 <HAL_LCD_voidInit+0x34e>
    177c:	38 c0       	rjmp	.+112    	; 0x17ee <HAL_LCD_voidInit+0x41a>
    177e:	8e 01       	movw	r16, r28
    1780:	0f 5b       	subi	r16, 0xBF	; 191
    1782:	1f 4f       	sbci	r17, 0xFF	; 255
    1784:	ce 01       	movw	r24, r28
    1786:	cd 96       	adiw	r24, 0x3d	; 61
    1788:	dc 01       	movw	r26, r24
    178a:	6d 91       	ld	r22, X+
    178c:	7d 91       	ld	r23, X+
    178e:	8d 91       	ld	r24, X+
    1790:	9c 91       	ld	r25, X
    1792:	0e 94 cf 16 	call	0x2d9e	; 0x2d9e <__fixunssfsi>
    1796:	c7 57       	subi	r28, 0x77	; 119
    1798:	df 4f       	sbci	r29, 0xFF	; 255
    179a:	68 83       	st	Y, r22
    179c:	79 83       	std	Y+1, r23	; 0x01
    179e:	8a 83       	std	Y+2, r24	; 0x02
    17a0:	9b 83       	std	Y+3, r25	; 0x03
    17a2:	c9 58       	subi	r28, 0x89	; 137
    17a4:	d0 40       	sbci	r29, 0x00	; 0
    17a6:	c7 57       	subi	r28, 0x77	; 119
    17a8:	df 4f       	sbci	r29, 0xFF	; 255
    17aa:	28 81       	ld	r18, Y
    17ac:	39 81       	ldd	r19, Y+1	; 0x01
    17ae:	c9 58       	subi	r28, 0x89	; 137
    17b0:	d0 40       	sbci	r29, 0x00	; 0
    17b2:	f8 01       	movw	r30, r16
    17b4:	31 83       	std	Z+1, r19	; 0x01
    17b6:	20 83       	st	Z, r18
    17b8:	ce 01       	movw	r24, r28
    17ba:	8b 5b       	subi	r24, 0xBB	; 187
    17bc:	9f 4f       	sbci	r25, 0xFF	; 255
    17be:	9e 01       	movw	r18, r28
    17c0:	2f 5b       	subi	r18, 0xBF	; 191
    17c2:	3f 4f       	sbci	r19, 0xFF	; 255
    17c4:	d9 01       	movw	r26, r18
    17c6:	2d 91       	ld	r18, X+
    17c8:	3c 91       	ld	r19, X
    17ca:	fc 01       	movw	r30, r24
    17cc:	31 83       	std	Z+1, r19	; 0x01
    17ce:	20 83       	st	Z, r18
    17d0:	ce 01       	movw	r24, r28
    17d2:	8b 5b       	subi	r24, 0xBB	; 187
    17d4:	9f 4f       	sbci	r25, 0xFF	; 255
    17d6:	dc 01       	movw	r26, r24
    17d8:	8d 91       	ld	r24, X+
    17da:	9c 91       	ld	r25, X
    17dc:	01 97       	sbiw	r24, 0x01	; 1
    17de:	f1 f7       	brne	.-4      	; 0x17dc <HAL_LCD_voidInit+0x408>
    17e0:	9e 01       	movw	r18, r28
    17e2:	2b 5b       	subi	r18, 0xBB	; 187
    17e4:	3f 4f       	sbci	r19, 0xFF	; 255
    17e6:	f9 01       	movw	r30, r18
    17e8:	91 83       	std	Z+1, r25	; 0x01
    17ea:	80 83       	st	Z, r24
    17ec:	00 00       	nop
    17ee:	82 e3       	ldi	r24, 0x32	; 50
    17f0:	0e 94 6a 05 	call	0xad4	; 0xad4 <HAL_LCD_voidWriteCommand>
    17f4:	80 e0       	ldi	r24, 0x00	; 0
    17f6:	90 e0       	ldi	r25, 0x00	; 0
    17f8:	a0 e0       	ldi	r26, 0x00	; 0
    17fa:	b0 e4       	ldi	r27, 0x40	; 64
    17fc:	8b a7       	std	Y+43, r24	; 0x2b
    17fe:	9c a7       	std	Y+44, r25	; 0x2c
    1800:	ad a7       	std	Y+45, r26	; 0x2d
    1802:	be a7       	std	Y+46, r27	; 0x2e
    1804:	20 e0       	ldi	r18, 0x00	; 0
    1806:	30 e0       	ldi	r19, 0x00	; 0
    1808:	4a ef       	ldi	r20, 0xFA	; 250
    180a:	54 e4       	ldi	r21, 0x44	; 68
    180c:	6b a5       	ldd	r22, Y+43	; 0x2b
    180e:	7c a5       	ldd	r23, Y+44	; 0x2c
    1810:	8d a5       	ldd	r24, Y+45	; 0x2d
    1812:	9e a5       	ldd	r25, Y+46	; 0x2e
    1814:	0e 94 50 17 	call	0x2ea0	; 0x2ea0 <__mulsf3>
    1818:	c3 57       	subi	r28, 0x73	; 115
    181a:	df 4f       	sbci	r29, 0xFF	; 255
    181c:	68 83       	st	Y, r22
    181e:	79 83       	std	Y+1, r23	; 0x01
    1820:	8a 83       	std	Y+2, r24	; 0x02
    1822:	9b 83       	std	Y+3, r25	; 0x03
    1824:	cd 58       	subi	r28, 0x8D	; 141
    1826:	d0 40       	sbci	r29, 0x00	; 0
    1828:	c3 57       	subi	r28, 0x73	; 115
    182a:	df 4f       	sbci	r29, 0xFF	; 255
    182c:	28 81       	ld	r18, Y
    182e:	39 81       	ldd	r19, Y+1	; 0x01
    1830:	4a 81       	ldd	r20, Y+2	; 0x02
    1832:	5b 81       	ldd	r21, Y+3	; 0x03
    1834:	cd 58       	subi	r28, 0x8D	; 141
    1836:	d0 40       	sbci	r29, 0x00	; 0
    1838:	2f a7       	std	Y+47, r18	; 0x2f
    183a:	38 ab       	std	Y+48, r19	; 0x30
    183c:	49 ab       	std	Y+49, r20	; 0x31
    183e:	5a ab       	std	Y+50, r21	; 0x32
    1840:	20 e0       	ldi	r18, 0x00	; 0
    1842:	30 e0       	ldi	r19, 0x00	; 0
    1844:	40 e8       	ldi	r20, 0x80	; 128
    1846:	5f e3       	ldi	r21, 0x3F	; 63
    1848:	6f a5       	ldd	r22, Y+47	; 0x2f
    184a:	78 a9       	ldd	r23, Y+48	; 0x30
    184c:	89 a9       	ldd	r24, Y+49	; 0x31
    184e:	9a a9       	ldd	r25, Y+50	; 0x32
    1850:	0e 94 ca 16 	call	0x2d94	; 0x2d94 <__cmpsf2>
    1854:	88 23       	and	r24, r24
    1856:	2c f4       	brge	.+10     	; 0x1862 <HAL_LCD_voidInit+0x48e>
    1858:	81 e0       	ldi	r24, 0x01	; 1
    185a:	90 e0       	ldi	r25, 0x00	; 0
    185c:	9c ab       	std	Y+52, r25	; 0x34
    185e:	8b ab       	std	Y+51, r24	; 0x33
    1860:	71 c0       	rjmp	.+226    	; 0x1944 <HAL_LCD_voidInit+0x570>
    1862:	20 e0       	ldi	r18, 0x00	; 0
    1864:	3f ef       	ldi	r19, 0xFF	; 255
    1866:	4f e7       	ldi	r20, 0x7F	; 127
    1868:	57 e4       	ldi	r21, 0x47	; 71
    186a:	6f a5       	ldd	r22, Y+47	; 0x2f
    186c:	78 a9       	ldd	r23, Y+48	; 0x30
    186e:	89 a9       	ldd	r24, Y+49	; 0x31
    1870:	9a a9       	ldd	r25, Y+50	; 0x32
    1872:	0e 94 4b 17 	call	0x2e96	; 0x2e96 <__gesf2>
    1876:	18 16       	cp	r1, r24
    1878:	0c f0       	brlt	.+2      	; 0x187c <HAL_LCD_voidInit+0x4a8>
    187a:	4e c0       	rjmp	.+156    	; 0x1918 <HAL_LCD_voidInit+0x544>
    187c:	20 e0       	ldi	r18, 0x00	; 0
    187e:	30 e0       	ldi	r19, 0x00	; 0
    1880:	40 e2       	ldi	r20, 0x20	; 32
    1882:	51 e4       	ldi	r21, 0x41	; 65
    1884:	6b a5       	ldd	r22, Y+43	; 0x2b
    1886:	7c a5       	ldd	r23, Y+44	; 0x2c
    1888:	8d a5       	ldd	r24, Y+45	; 0x2d
    188a:	9e a5       	ldd	r25, Y+46	; 0x2e
    188c:	0e 94 50 17 	call	0x2ea0	; 0x2ea0 <__mulsf3>
    1890:	cf 56       	subi	r28, 0x6F	; 111
    1892:	df 4f       	sbci	r29, 0xFF	; 255
    1894:	68 83       	st	Y, r22
    1896:	79 83       	std	Y+1, r23	; 0x01
    1898:	8a 83       	std	Y+2, r24	; 0x02
    189a:	9b 83       	std	Y+3, r25	; 0x03
    189c:	c1 59       	subi	r28, 0x91	; 145
    189e:	d0 40       	sbci	r29, 0x00	; 0
    18a0:	cf 56       	subi	r28, 0x6F	; 111
    18a2:	df 4f       	sbci	r29, 0xFF	; 255
    18a4:	88 81       	ld	r24, Y
    18a6:	99 81       	ldd	r25, Y+1	; 0x01
    18a8:	aa 81       	ldd	r26, Y+2	; 0x02
    18aa:	bb 81       	ldd	r27, Y+3	; 0x03
    18ac:	c1 59       	subi	r28, 0x91	; 145
    18ae:	d0 40       	sbci	r29, 0x00	; 0
    18b0:	a5 96       	adiw	r28, 0x25	; 37
    18b2:	8c af       	std	Y+60, r24	; 0x3c
    18b4:	9d af       	std	Y+61, r25	; 0x3d
    18b6:	ae af       	std	Y+62, r26	; 0x3e
    18b8:	bf af       	std	Y+63, r27	; 0x3f
    18ba:	a5 97       	sbiw	r28, 0x25	; 37
    18bc:	a5 96       	adiw	r28, 0x25	; 37
    18be:	6c ad       	ldd	r22, Y+60	; 0x3c
    18c0:	7d ad       	ldd	r23, Y+61	; 0x3d
    18c2:	8e ad       	ldd	r24, Y+62	; 0x3e
    18c4:	9f ad       	ldd	r25, Y+63	; 0x3f
    18c6:	a5 97       	sbiw	r28, 0x25	; 37
    18c8:	0e 94 cf 16 	call	0x2d9e	; 0x2d9e <__fixunssfsi>
    18cc:	cb 56       	subi	r28, 0x6B	; 107
    18ce:	df 4f       	sbci	r29, 0xFF	; 255
    18d0:	68 83       	st	Y, r22
    18d2:	79 83       	std	Y+1, r23	; 0x01
    18d4:	8a 83       	std	Y+2, r24	; 0x02
    18d6:	9b 83       	std	Y+3, r25	; 0x03
    18d8:	c5 59       	subi	r28, 0x95	; 149
    18da:	d0 40       	sbci	r29, 0x00	; 0
    18dc:	cb 56       	subi	r28, 0x6B	; 107
    18de:	df 4f       	sbci	r29, 0xFF	; 255
    18e0:	a8 81       	ld	r26, Y
    18e2:	b9 81       	ldd	r27, Y+1	; 0x01
    18e4:	c5 59       	subi	r28, 0x95	; 149
    18e6:	d0 40       	sbci	r29, 0x00	; 0
    18e8:	bc ab       	std	Y+52, r27	; 0x34
    18ea:	ab ab       	std	Y+51, r26	; 0x33
    18ec:	10 c0       	rjmp	.+32     	; 0x190e <HAL_LCD_voidInit+0x53a>
    18ee:	88 ec       	ldi	r24, 0xC8	; 200
    18f0:	90 e0       	ldi	r25, 0x00	; 0
    18f2:	9e ab       	std	Y+54, r25	; 0x36
    18f4:	8d ab       	std	Y+53, r24	; 0x35
    18f6:	8d a9       	ldd	r24, Y+53	; 0x35
    18f8:	9e a9       	ldd	r25, Y+54	; 0x36
    18fa:	01 97       	sbiw	r24, 0x01	; 1
    18fc:	f1 f7       	brne	.-4      	; 0x18fa <HAL_LCD_voidInit+0x526>
    18fe:	9e ab       	std	Y+54, r25	; 0x36
    1900:	8d ab       	std	Y+53, r24	; 0x35
    1902:	00 00       	nop
    1904:	8b a9       	ldd	r24, Y+51	; 0x33
    1906:	9c a9       	ldd	r25, Y+52	; 0x34
    1908:	01 97       	sbiw	r24, 0x01	; 1
    190a:	9c ab       	std	Y+52, r25	; 0x34
    190c:	8b ab       	std	Y+51, r24	; 0x33
    190e:	8b a9       	ldd	r24, Y+51	; 0x33
    1910:	9c a9       	ldd	r25, Y+52	; 0x34
    1912:	89 2b       	or	r24, r25
    1914:	61 f7       	brne	.-40     	; 0x18ee <HAL_LCD_voidInit+0x51a>
    1916:	21 c0       	rjmp	.+66     	; 0x195a <HAL_LCD_voidInit+0x586>
    1918:	6f a5       	ldd	r22, Y+47	; 0x2f
    191a:	78 a9       	ldd	r23, Y+48	; 0x30
    191c:	89 a9       	ldd	r24, Y+49	; 0x31
    191e:	9a a9       	ldd	r25, Y+50	; 0x32
    1920:	0e 94 cf 16 	call	0x2d9e	; 0x2d9e <__fixunssfsi>
    1924:	c7 56       	subi	r28, 0x67	; 103
    1926:	df 4f       	sbci	r29, 0xFF	; 255
    1928:	68 83       	st	Y, r22
    192a:	79 83       	std	Y+1, r23	; 0x01
    192c:	8a 83       	std	Y+2, r24	; 0x02
    192e:	9b 83       	std	Y+3, r25	; 0x03
    1930:	c9 59       	subi	r28, 0x99	; 153
    1932:	d0 40       	sbci	r29, 0x00	; 0
    1934:	c7 56       	subi	r28, 0x67	; 103
    1936:	df 4f       	sbci	r29, 0xFF	; 255
    1938:	e8 81       	ld	r30, Y
    193a:	f9 81       	ldd	r31, Y+1	; 0x01
    193c:	c9 59       	subi	r28, 0x99	; 153
    193e:	d0 40       	sbci	r29, 0x00	; 0
    1940:	fc ab       	std	Y+52, r31	; 0x34
    1942:	eb ab       	std	Y+51, r30	; 0x33
    1944:	8b a9       	ldd	r24, Y+51	; 0x33
    1946:	9c a9       	ldd	r25, Y+52	; 0x34
    1948:	98 af       	std	Y+56, r25	; 0x38
    194a:	8f ab       	std	Y+55, r24	; 0x37
    194c:	8f a9       	ldd	r24, Y+55	; 0x37
    194e:	98 ad       	ldd	r25, Y+56	; 0x38
    1950:	01 97       	sbiw	r24, 0x01	; 1
    1952:	f1 f7       	brne	.-4      	; 0x1950 <HAL_LCD_voidInit+0x57c>
    1954:	98 af       	std	Y+56, r25	; 0x38
    1956:	8f ab       	std	Y+55, r24	; 0x37
    1958:	00 00       	nop
    195a:	8c e2       	ldi	r24, 0x2C	; 44
    195c:	0e 94 6a 05 	call	0xad4	; 0xad4 <HAL_LCD_voidWriteCommand>
    1960:	80 e0       	ldi	r24, 0x00	; 0
    1962:	90 e0       	ldi	r25, 0x00	; 0
    1964:	a0 e0       	ldi	r26, 0x00	; 0
    1966:	b0 e4       	ldi	r27, 0x40	; 64
    1968:	8d 8f       	std	Y+29, r24	; 0x1d
    196a:	9e 8f       	std	Y+30, r25	; 0x1e
    196c:	af 8f       	std	Y+31, r26	; 0x1f
    196e:	b8 a3       	std	Y+32, r27	; 0x20
    1970:	20 e0       	ldi	r18, 0x00	; 0
    1972:	30 e0       	ldi	r19, 0x00	; 0
    1974:	4a ef       	ldi	r20, 0xFA	; 250
    1976:	54 e4       	ldi	r21, 0x44	; 68
    1978:	6d 8d       	ldd	r22, Y+29	; 0x1d
    197a:	7e 8d       	ldd	r23, Y+30	; 0x1e
    197c:	8f 8d       	ldd	r24, Y+31	; 0x1f
    197e:	98 a1       	ldd	r25, Y+32	; 0x20
    1980:	0e 94 50 17 	call	0x2ea0	; 0x2ea0 <__mulsf3>
    1984:	c3 56       	subi	r28, 0x63	; 99
    1986:	df 4f       	sbci	r29, 0xFF	; 255
    1988:	68 83       	st	Y, r22
    198a:	79 83       	std	Y+1, r23	; 0x01
    198c:	8a 83       	std	Y+2, r24	; 0x02
    198e:	9b 83       	std	Y+3, r25	; 0x03
    1990:	cd 59       	subi	r28, 0x9D	; 157
    1992:	d0 40       	sbci	r29, 0x00	; 0
    1994:	c3 56       	subi	r28, 0x63	; 99
    1996:	df 4f       	sbci	r29, 0xFF	; 255
    1998:	28 81       	ld	r18, Y
    199a:	39 81       	ldd	r19, Y+1	; 0x01
    199c:	4a 81       	ldd	r20, Y+2	; 0x02
    199e:	5b 81       	ldd	r21, Y+3	; 0x03
    19a0:	cd 59       	subi	r28, 0x9D	; 157
    19a2:	d0 40       	sbci	r29, 0x00	; 0
    19a4:	29 a3       	std	Y+33, r18	; 0x21
    19a6:	3a a3       	std	Y+34, r19	; 0x22
    19a8:	4b a3       	std	Y+35, r20	; 0x23
    19aa:	5c a3       	std	Y+36, r21	; 0x24
    19ac:	20 e0       	ldi	r18, 0x00	; 0
    19ae:	30 e0       	ldi	r19, 0x00	; 0
    19b0:	40 e8       	ldi	r20, 0x80	; 128
    19b2:	5f e3       	ldi	r21, 0x3F	; 63
    19b4:	69 a1       	ldd	r22, Y+33	; 0x21
    19b6:	7a a1       	ldd	r23, Y+34	; 0x22
    19b8:	8b a1       	ldd	r24, Y+35	; 0x23
    19ba:	9c a1       	ldd	r25, Y+36	; 0x24
    19bc:	0e 94 ca 16 	call	0x2d94	; 0x2d94 <__cmpsf2>
    19c0:	88 23       	and	r24, r24
    19c2:	2c f4       	brge	.+10     	; 0x19ce <HAL_LCD_voidInit+0x5fa>
    19c4:	81 e0       	ldi	r24, 0x01	; 1
    19c6:	90 e0       	ldi	r25, 0x00	; 0
    19c8:	9e a3       	std	Y+38, r25	; 0x26
    19ca:	8d a3       	std	Y+37, r24	; 0x25
    19cc:	71 c0       	rjmp	.+226    	; 0x1ab0 <HAL_LCD_voidInit+0x6dc>
    19ce:	20 e0       	ldi	r18, 0x00	; 0
    19d0:	3f ef       	ldi	r19, 0xFF	; 255
    19d2:	4f e7       	ldi	r20, 0x7F	; 127
    19d4:	57 e4       	ldi	r21, 0x47	; 71
    19d6:	69 a1       	ldd	r22, Y+33	; 0x21
    19d8:	7a a1       	ldd	r23, Y+34	; 0x22
    19da:	8b a1       	ldd	r24, Y+35	; 0x23
    19dc:	9c a1       	ldd	r25, Y+36	; 0x24
    19de:	0e 94 4b 17 	call	0x2e96	; 0x2e96 <__gesf2>
    19e2:	18 16       	cp	r1, r24
    19e4:	0c f0       	brlt	.+2      	; 0x19e8 <HAL_LCD_voidInit+0x614>
    19e6:	4e c0       	rjmp	.+156    	; 0x1a84 <HAL_LCD_voidInit+0x6b0>
    19e8:	20 e0       	ldi	r18, 0x00	; 0
    19ea:	30 e0       	ldi	r19, 0x00	; 0
    19ec:	40 e2       	ldi	r20, 0x20	; 32
    19ee:	51 e4       	ldi	r21, 0x41	; 65
    19f0:	6d 8d       	ldd	r22, Y+29	; 0x1d
    19f2:	7e 8d       	ldd	r23, Y+30	; 0x1e
    19f4:	8f 8d       	ldd	r24, Y+31	; 0x1f
    19f6:	98 a1       	ldd	r25, Y+32	; 0x20
    19f8:	0e 94 50 17 	call	0x2ea0	; 0x2ea0 <__mulsf3>
    19fc:	cf 55       	subi	r28, 0x5F	; 95
    19fe:	df 4f       	sbci	r29, 0xFF	; 255
    1a00:	68 83       	st	Y, r22
    1a02:	79 83       	std	Y+1, r23	; 0x01
    1a04:	8a 83       	std	Y+2, r24	; 0x02
    1a06:	9b 83       	std	Y+3, r25	; 0x03
    1a08:	c1 5a       	subi	r28, 0xA1	; 161
    1a0a:	d0 40       	sbci	r29, 0x00	; 0
    1a0c:	cf 55       	subi	r28, 0x5F	; 95
    1a0e:	df 4f       	sbci	r29, 0xFF	; 255
    1a10:	88 81       	ld	r24, Y
    1a12:	99 81       	ldd	r25, Y+1	; 0x01
    1a14:	aa 81       	ldd	r26, Y+2	; 0x02
    1a16:	bb 81       	ldd	r27, Y+3	; 0x03
    1a18:	c1 5a       	subi	r28, 0xA1	; 161
    1a1a:	d0 40       	sbci	r29, 0x00	; 0
    1a1c:	a1 96       	adiw	r28, 0x21	; 33
    1a1e:	8c af       	std	Y+60, r24	; 0x3c
    1a20:	9d af       	std	Y+61, r25	; 0x3d
    1a22:	ae af       	std	Y+62, r26	; 0x3e
    1a24:	bf af       	std	Y+63, r27	; 0x3f
    1a26:	a1 97       	sbiw	r28, 0x21	; 33
    1a28:	a1 96       	adiw	r28, 0x21	; 33
    1a2a:	6c ad       	ldd	r22, Y+60	; 0x3c
    1a2c:	7d ad       	ldd	r23, Y+61	; 0x3d
    1a2e:	8e ad       	ldd	r24, Y+62	; 0x3e
    1a30:	9f ad       	ldd	r25, Y+63	; 0x3f
    1a32:	a1 97       	sbiw	r28, 0x21	; 33
    1a34:	0e 94 cf 16 	call	0x2d9e	; 0x2d9e <__fixunssfsi>
    1a38:	cb 55       	subi	r28, 0x5B	; 91
    1a3a:	df 4f       	sbci	r29, 0xFF	; 255
    1a3c:	68 83       	st	Y, r22
    1a3e:	79 83       	std	Y+1, r23	; 0x01
    1a40:	8a 83       	std	Y+2, r24	; 0x02
    1a42:	9b 83       	std	Y+3, r25	; 0x03
    1a44:	c5 5a       	subi	r28, 0xA5	; 165
    1a46:	d0 40       	sbci	r29, 0x00	; 0
    1a48:	cb 55       	subi	r28, 0x5B	; 91
    1a4a:	df 4f       	sbci	r29, 0xFF	; 255
    1a4c:	a8 81       	ld	r26, Y
    1a4e:	b9 81       	ldd	r27, Y+1	; 0x01
    1a50:	c5 5a       	subi	r28, 0xA5	; 165
    1a52:	d0 40       	sbci	r29, 0x00	; 0
    1a54:	be a3       	std	Y+38, r27	; 0x26
    1a56:	ad a3       	std	Y+37, r26	; 0x25
    1a58:	10 c0       	rjmp	.+32     	; 0x1a7a <HAL_LCD_voidInit+0x6a6>
    1a5a:	88 ec       	ldi	r24, 0xC8	; 200
    1a5c:	90 e0       	ldi	r25, 0x00	; 0
    1a5e:	98 a7       	std	Y+40, r25	; 0x28
    1a60:	8f a3       	std	Y+39, r24	; 0x27
    1a62:	8f a1       	ldd	r24, Y+39	; 0x27
    1a64:	98 a5       	ldd	r25, Y+40	; 0x28
    1a66:	01 97       	sbiw	r24, 0x01	; 1
    1a68:	f1 f7       	brne	.-4      	; 0x1a66 <HAL_LCD_voidInit+0x692>
    1a6a:	98 a7       	std	Y+40, r25	; 0x28
    1a6c:	8f a3       	std	Y+39, r24	; 0x27
    1a6e:	00 00       	nop
    1a70:	8d a1       	ldd	r24, Y+37	; 0x25
    1a72:	9e a1       	ldd	r25, Y+38	; 0x26
    1a74:	01 97       	sbiw	r24, 0x01	; 1
    1a76:	9e a3       	std	Y+38, r25	; 0x26
    1a78:	8d a3       	std	Y+37, r24	; 0x25
    1a7a:	8d a1       	ldd	r24, Y+37	; 0x25
    1a7c:	9e a1       	ldd	r25, Y+38	; 0x26
    1a7e:	89 2b       	or	r24, r25
    1a80:	61 f7       	brne	.-40     	; 0x1a5a <HAL_LCD_voidInit+0x686>
    1a82:	21 c0       	rjmp	.+66     	; 0x1ac6 <HAL_LCD_voidInit+0x6f2>
    1a84:	69 a1       	ldd	r22, Y+33	; 0x21
    1a86:	7a a1       	ldd	r23, Y+34	; 0x22
    1a88:	8b a1       	ldd	r24, Y+35	; 0x23
    1a8a:	9c a1       	ldd	r25, Y+36	; 0x24
    1a8c:	0e 94 cf 16 	call	0x2d9e	; 0x2d9e <__fixunssfsi>
    1a90:	c7 55       	subi	r28, 0x57	; 87
    1a92:	df 4f       	sbci	r29, 0xFF	; 255
    1a94:	68 83       	st	Y, r22
    1a96:	79 83       	std	Y+1, r23	; 0x01
    1a98:	8a 83       	std	Y+2, r24	; 0x02
    1a9a:	9b 83       	std	Y+3, r25	; 0x03
    1a9c:	c9 5a       	subi	r28, 0xA9	; 169
    1a9e:	d0 40       	sbci	r29, 0x00	; 0
    1aa0:	c7 55       	subi	r28, 0x57	; 87
    1aa2:	df 4f       	sbci	r29, 0xFF	; 255
    1aa4:	e8 81       	ld	r30, Y
    1aa6:	f9 81       	ldd	r31, Y+1	; 0x01
    1aa8:	c9 5a       	subi	r28, 0xA9	; 169
    1aaa:	d0 40       	sbci	r29, 0x00	; 0
    1aac:	fe a3       	std	Y+38, r31	; 0x26
    1aae:	ed a3       	std	Y+37, r30	; 0x25
    1ab0:	8d a1       	ldd	r24, Y+37	; 0x25
    1ab2:	9e a1       	ldd	r25, Y+38	; 0x26
    1ab4:	9a a7       	std	Y+42, r25	; 0x2a
    1ab6:	89 a7       	std	Y+41, r24	; 0x29
    1ab8:	89 a5       	ldd	r24, Y+41	; 0x29
    1aba:	9a a5       	ldd	r25, Y+42	; 0x2a
    1abc:	01 97       	sbiw	r24, 0x01	; 1
    1abe:	f1 f7       	brne	.-4      	; 0x1abc <HAL_LCD_voidInit+0x6e8>
    1ac0:	9a a7       	std	Y+42, r25	; 0x2a
    1ac2:	89 a7       	std	Y+41, r24	; 0x29
    1ac4:	00 00       	nop
    1ac6:	8f e0       	ldi	r24, 0x0F	; 15
    1ac8:	0e 94 6a 05 	call	0xad4	; 0xad4 <HAL_LCD_voidWriteCommand>
    1acc:	80 e0       	ldi	r24, 0x00	; 0
    1ace:	90 e0       	ldi	r25, 0x00	; 0
    1ad0:	a0 e0       	ldi	r26, 0x00	; 0
    1ad2:	b0 e4       	ldi	r27, 0x40	; 64
    1ad4:	8f 87       	std	Y+15, r24	; 0x0f
    1ad6:	98 8b       	std	Y+16, r25	; 0x10
    1ad8:	a9 8b       	std	Y+17, r26	; 0x11
    1ada:	ba 8b       	std	Y+18, r27	; 0x12
    1adc:	20 e0       	ldi	r18, 0x00	; 0
    1ade:	30 e0       	ldi	r19, 0x00	; 0
    1ae0:	4a ef       	ldi	r20, 0xFA	; 250
    1ae2:	54 e4       	ldi	r21, 0x44	; 68
    1ae4:	6f 85       	ldd	r22, Y+15	; 0x0f
    1ae6:	78 89       	ldd	r23, Y+16	; 0x10
    1ae8:	89 89       	ldd	r24, Y+17	; 0x11
    1aea:	9a 89       	ldd	r25, Y+18	; 0x12
    1aec:	0e 94 50 17 	call	0x2ea0	; 0x2ea0 <__mulsf3>
    1af0:	c3 55       	subi	r28, 0x53	; 83
    1af2:	df 4f       	sbci	r29, 0xFF	; 255
    1af4:	68 83       	st	Y, r22
    1af6:	79 83       	std	Y+1, r23	; 0x01
    1af8:	8a 83       	std	Y+2, r24	; 0x02
    1afa:	9b 83       	std	Y+3, r25	; 0x03
    1afc:	cd 5a       	subi	r28, 0xAD	; 173
    1afe:	d0 40       	sbci	r29, 0x00	; 0
    1b00:	c3 55       	subi	r28, 0x53	; 83
    1b02:	df 4f       	sbci	r29, 0xFF	; 255
    1b04:	28 81       	ld	r18, Y
    1b06:	39 81       	ldd	r19, Y+1	; 0x01
    1b08:	4a 81       	ldd	r20, Y+2	; 0x02
    1b0a:	5b 81       	ldd	r21, Y+3	; 0x03
    1b0c:	cd 5a       	subi	r28, 0xAD	; 173
    1b0e:	d0 40       	sbci	r29, 0x00	; 0
    1b10:	2b 8b       	std	Y+19, r18	; 0x13
    1b12:	3c 8b       	std	Y+20, r19	; 0x14
    1b14:	4d 8b       	std	Y+21, r20	; 0x15
    1b16:	5e 8b       	std	Y+22, r21	; 0x16
    1b18:	20 e0       	ldi	r18, 0x00	; 0
    1b1a:	30 e0       	ldi	r19, 0x00	; 0
    1b1c:	40 e8       	ldi	r20, 0x80	; 128
    1b1e:	5f e3       	ldi	r21, 0x3F	; 63
    1b20:	6b 89       	ldd	r22, Y+19	; 0x13
    1b22:	7c 89       	ldd	r23, Y+20	; 0x14
    1b24:	8d 89       	ldd	r24, Y+21	; 0x15
    1b26:	9e 89       	ldd	r25, Y+22	; 0x16
    1b28:	0e 94 ca 16 	call	0x2d94	; 0x2d94 <__cmpsf2>
    1b2c:	88 23       	and	r24, r24
    1b2e:	2c f4       	brge	.+10     	; 0x1b3a <HAL_LCD_voidInit+0x766>
    1b30:	81 e0       	ldi	r24, 0x01	; 1
    1b32:	90 e0       	ldi	r25, 0x00	; 0
    1b34:	98 8f       	std	Y+24, r25	; 0x18
    1b36:	8f 8b       	std	Y+23, r24	; 0x17
    1b38:	71 c0       	rjmp	.+226    	; 0x1c1c <HAL_LCD_voidInit+0x848>
    1b3a:	20 e0       	ldi	r18, 0x00	; 0
    1b3c:	3f ef       	ldi	r19, 0xFF	; 255
    1b3e:	4f e7       	ldi	r20, 0x7F	; 127
    1b40:	57 e4       	ldi	r21, 0x47	; 71
    1b42:	6b 89       	ldd	r22, Y+19	; 0x13
    1b44:	7c 89       	ldd	r23, Y+20	; 0x14
    1b46:	8d 89       	ldd	r24, Y+21	; 0x15
    1b48:	9e 89       	ldd	r25, Y+22	; 0x16
    1b4a:	0e 94 4b 17 	call	0x2e96	; 0x2e96 <__gesf2>
    1b4e:	18 16       	cp	r1, r24
    1b50:	0c f0       	brlt	.+2      	; 0x1b54 <HAL_LCD_voidInit+0x780>
    1b52:	4e c0       	rjmp	.+156    	; 0x1bf0 <HAL_LCD_voidInit+0x81c>
    1b54:	20 e0       	ldi	r18, 0x00	; 0
    1b56:	30 e0       	ldi	r19, 0x00	; 0
    1b58:	40 e2       	ldi	r20, 0x20	; 32
    1b5a:	51 e4       	ldi	r21, 0x41	; 65
    1b5c:	6f 85       	ldd	r22, Y+15	; 0x0f
    1b5e:	78 89       	ldd	r23, Y+16	; 0x10
    1b60:	89 89       	ldd	r24, Y+17	; 0x11
    1b62:	9a 89       	ldd	r25, Y+18	; 0x12
    1b64:	0e 94 50 17 	call	0x2ea0	; 0x2ea0 <__mulsf3>
    1b68:	cf 54       	subi	r28, 0x4F	; 79
    1b6a:	df 4f       	sbci	r29, 0xFF	; 255
    1b6c:	68 83       	st	Y, r22
    1b6e:	79 83       	std	Y+1, r23	; 0x01
    1b70:	8a 83       	std	Y+2, r24	; 0x02
    1b72:	9b 83       	std	Y+3, r25	; 0x03
    1b74:	c1 5b       	subi	r28, 0xB1	; 177
    1b76:	d0 40       	sbci	r29, 0x00	; 0
    1b78:	cf 54       	subi	r28, 0x4F	; 79
    1b7a:	df 4f       	sbci	r29, 0xFF	; 255
    1b7c:	88 81       	ld	r24, Y
    1b7e:	99 81       	ldd	r25, Y+1	; 0x01
    1b80:	aa 81       	ldd	r26, Y+2	; 0x02
    1b82:	bb 81       	ldd	r27, Y+3	; 0x03
    1b84:	c1 5b       	subi	r28, 0xB1	; 177
    1b86:	d0 40       	sbci	r29, 0x00	; 0
    1b88:	6d 96       	adiw	r28, 0x1d	; 29
    1b8a:	8c af       	std	Y+60, r24	; 0x3c
    1b8c:	9d af       	std	Y+61, r25	; 0x3d
    1b8e:	ae af       	std	Y+62, r26	; 0x3e
    1b90:	bf af       	std	Y+63, r27	; 0x3f
    1b92:	6d 97       	sbiw	r28, 0x1d	; 29
    1b94:	6d 96       	adiw	r28, 0x1d	; 29
    1b96:	6c ad       	ldd	r22, Y+60	; 0x3c
    1b98:	7d ad       	ldd	r23, Y+61	; 0x3d
    1b9a:	8e ad       	ldd	r24, Y+62	; 0x3e
    1b9c:	9f ad       	ldd	r25, Y+63	; 0x3f
    1b9e:	6d 97       	sbiw	r28, 0x1d	; 29
    1ba0:	0e 94 cf 16 	call	0x2d9e	; 0x2d9e <__fixunssfsi>
    1ba4:	cb 54       	subi	r28, 0x4B	; 75
    1ba6:	df 4f       	sbci	r29, 0xFF	; 255
    1ba8:	68 83       	st	Y, r22
    1baa:	79 83       	std	Y+1, r23	; 0x01
    1bac:	8a 83       	std	Y+2, r24	; 0x02
    1bae:	9b 83       	std	Y+3, r25	; 0x03
    1bb0:	c5 5b       	subi	r28, 0xB5	; 181
    1bb2:	d0 40       	sbci	r29, 0x00	; 0
    1bb4:	cb 54       	subi	r28, 0x4B	; 75
    1bb6:	df 4f       	sbci	r29, 0xFF	; 255
    1bb8:	a8 81       	ld	r26, Y
    1bba:	b9 81       	ldd	r27, Y+1	; 0x01
    1bbc:	c5 5b       	subi	r28, 0xB5	; 181
    1bbe:	d0 40       	sbci	r29, 0x00	; 0
    1bc0:	b8 8f       	std	Y+24, r27	; 0x18
    1bc2:	af 8b       	std	Y+23, r26	; 0x17
    1bc4:	10 c0       	rjmp	.+32     	; 0x1be6 <HAL_LCD_voidInit+0x812>
    1bc6:	88 ec       	ldi	r24, 0xC8	; 200
    1bc8:	90 e0       	ldi	r25, 0x00	; 0
    1bca:	9a 8f       	std	Y+26, r25	; 0x1a
    1bcc:	89 8f       	std	Y+25, r24	; 0x19
    1bce:	89 8d       	ldd	r24, Y+25	; 0x19
    1bd0:	9a 8d       	ldd	r25, Y+26	; 0x1a
    1bd2:	01 97       	sbiw	r24, 0x01	; 1
    1bd4:	f1 f7       	brne	.-4      	; 0x1bd2 <HAL_LCD_voidInit+0x7fe>
    1bd6:	9a 8f       	std	Y+26, r25	; 0x1a
    1bd8:	89 8f       	std	Y+25, r24	; 0x19
    1bda:	00 00       	nop
    1bdc:	8f 89       	ldd	r24, Y+23	; 0x17
    1bde:	98 8d       	ldd	r25, Y+24	; 0x18
    1be0:	01 97       	sbiw	r24, 0x01	; 1
    1be2:	98 8f       	std	Y+24, r25	; 0x18
    1be4:	8f 8b       	std	Y+23, r24	; 0x17
    1be6:	8f 89       	ldd	r24, Y+23	; 0x17
    1be8:	98 8d       	ldd	r25, Y+24	; 0x18
    1bea:	89 2b       	or	r24, r25
    1bec:	61 f7       	brne	.-40     	; 0x1bc6 <HAL_LCD_voidInit+0x7f2>
    1bee:	21 c0       	rjmp	.+66     	; 0x1c32 <HAL_LCD_voidInit+0x85e>
    1bf0:	6b 89       	ldd	r22, Y+19	; 0x13
    1bf2:	7c 89       	ldd	r23, Y+20	; 0x14
    1bf4:	8d 89       	ldd	r24, Y+21	; 0x15
    1bf6:	9e 89       	ldd	r25, Y+22	; 0x16
    1bf8:	0e 94 cf 16 	call	0x2d9e	; 0x2d9e <__fixunssfsi>
    1bfc:	c7 54       	subi	r28, 0x47	; 71
    1bfe:	df 4f       	sbci	r29, 0xFF	; 255
    1c00:	68 83       	st	Y, r22
    1c02:	79 83       	std	Y+1, r23	; 0x01
    1c04:	8a 83       	std	Y+2, r24	; 0x02
    1c06:	9b 83       	std	Y+3, r25	; 0x03
    1c08:	c9 5b       	subi	r28, 0xB9	; 185
    1c0a:	d0 40       	sbci	r29, 0x00	; 0
    1c0c:	c7 54       	subi	r28, 0x47	; 71
    1c0e:	df 4f       	sbci	r29, 0xFF	; 255
    1c10:	e8 81       	ld	r30, Y
    1c12:	f9 81       	ldd	r31, Y+1	; 0x01
    1c14:	c9 5b       	subi	r28, 0xB9	; 185
    1c16:	d0 40       	sbci	r29, 0x00	; 0
    1c18:	f8 8f       	std	Y+24, r31	; 0x18
    1c1a:	ef 8b       	std	Y+23, r30	; 0x17
    1c1c:	8f 89       	ldd	r24, Y+23	; 0x17
    1c1e:	98 8d       	ldd	r25, Y+24	; 0x18
    1c20:	9c 8f       	std	Y+28, r25	; 0x1c
    1c22:	8b 8f       	std	Y+27, r24	; 0x1b
    1c24:	8b 8d       	ldd	r24, Y+27	; 0x1b
    1c26:	9c 8d       	ldd	r25, Y+28	; 0x1c
    1c28:	01 97       	sbiw	r24, 0x01	; 1
    1c2a:	f1 f7       	brne	.-4      	; 0x1c28 <HAL_LCD_voidInit+0x854>
    1c2c:	9c 8f       	std	Y+28, r25	; 0x1c
    1c2e:	8b 8f       	std	Y+27, r24	; 0x1b
    1c30:	00 00       	nop
    1c32:	81 e0       	ldi	r24, 0x01	; 1
    1c34:	0e 94 6a 05 	call	0xad4	; 0xad4 <HAL_LCD_voidWriteCommand>
    1c38:	80 e0       	ldi	r24, 0x00	; 0
    1c3a:	90 e0       	ldi	r25, 0x00	; 0
    1c3c:	a0 e0       	ldi	r26, 0x00	; 0
    1c3e:	b0 e4       	ldi	r27, 0x40	; 64
    1c40:	89 83       	std	Y+1, r24	; 0x01
    1c42:	9a 83       	std	Y+2, r25	; 0x02
    1c44:	ab 83       	std	Y+3, r26	; 0x03
    1c46:	bc 83       	std	Y+4, r27	; 0x04
    1c48:	20 e0       	ldi	r18, 0x00	; 0
    1c4a:	30 e0       	ldi	r19, 0x00	; 0
    1c4c:	4a ef       	ldi	r20, 0xFA	; 250
    1c4e:	54 e4       	ldi	r21, 0x44	; 68
    1c50:	69 81       	ldd	r22, Y+1	; 0x01
    1c52:	7a 81       	ldd	r23, Y+2	; 0x02
    1c54:	8b 81       	ldd	r24, Y+3	; 0x03
    1c56:	9c 81       	ldd	r25, Y+4	; 0x04
    1c58:	0e 94 50 17 	call	0x2ea0	; 0x2ea0 <__mulsf3>
    1c5c:	c3 54       	subi	r28, 0x43	; 67
    1c5e:	df 4f       	sbci	r29, 0xFF	; 255
    1c60:	68 83       	st	Y, r22
    1c62:	79 83       	std	Y+1, r23	; 0x01
    1c64:	8a 83       	std	Y+2, r24	; 0x02
    1c66:	9b 83       	std	Y+3, r25	; 0x03
    1c68:	cd 5b       	subi	r28, 0xBD	; 189
    1c6a:	d0 40       	sbci	r29, 0x00	; 0
    1c6c:	c3 54       	subi	r28, 0x43	; 67
    1c6e:	df 4f       	sbci	r29, 0xFF	; 255
    1c70:	28 81       	ld	r18, Y
    1c72:	39 81       	ldd	r19, Y+1	; 0x01
    1c74:	4a 81       	ldd	r20, Y+2	; 0x02
    1c76:	5b 81       	ldd	r21, Y+3	; 0x03
    1c78:	cd 5b       	subi	r28, 0xBD	; 189
    1c7a:	d0 40       	sbci	r29, 0x00	; 0
    1c7c:	2d 83       	std	Y+5, r18	; 0x05
    1c7e:	3e 83       	std	Y+6, r19	; 0x06
    1c80:	4f 83       	std	Y+7, r20	; 0x07
    1c82:	58 87       	std	Y+8, r21	; 0x08
    1c84:	20 e0       	ldi	r18, 0x00	; 0
    1c86:	30 e0       	ldi	r19, 0x00	; 0
    1c88:	40 e8       	ldi	r20, 0x80	; 128
    1c8a:	5f e3       	ldi	r21, 0x3F	; 63
    1c8c:	6d 81       	ldd	r22, Y+5	; 0x05
    1c8e:	7e 81       	ldd	r23, Y+6	; 0x06
    1c90:	8f 81       	ldd	r24, Y+7	; 0x07
    1c92:	98 85       	ldd	r25, Y+8	; 0x08
    1c94:	0e 94 ca 16 	call	0x2d94	; 0x2d94 <__cmpsf2>
    1c98:	88 23       	and	r24, r24
    1c9a:	2c f4       	brge	.+10     	; 0x1ca6 <HAL_LCD_voidInit+0x8d2>
    1c9c:	81 e0       	ldi	r24, 0x01	; 1
    1c9e:	90 e0       	ldi	r25, 0x00	; 0
    1ca0:	9a 87       	std	Y+10, r25	; 0x0a
    1ca2:	89 87       	std	Y+9, r24	; 0x09
    1ca4:	71 c0       	rjmp	.+226    	; 0x1d88 <HAL_LCD_voidInit+0x9b4>
    1ca6:	20 e0       	ldi	r18, 0x00	; 0
    1ca8:	3f ef       	ldi	r19, 0xFF	; 255
    1caa:	4f e7       	ldi	r20, 0x7F	; 127
    1cac:	57 e4       	ldi	r21, 0x47	; 71
    1cae:	6d 81       	ldd	r22, Y+5	; 0x05
    1cb0:	7e 81       	ldd	r23, Y+6	; 0x06
    1cb2:	8f 81       	ldd	r24, Y+7	; 0x07
    1cb4:	98 85       	ldd	r25, Y+8	; 0x08
    1cb6:	0e 94 4b 17 	call	0x2e96	; 0x2e96 <__gesf2>
    1cba:	18 16       	cp	r1, r24
    1cbc:	0c f0       	brlt	.+2      	; 0x1cc0 <HAL_LCD_voidInit+0x8ec>
    1cbe:	4e c0       	rjmp	.+156    	; 0x1d5c <HAL_LCD_voidInit+0x988>
    1cc0:	20 e0       	ldi	r18, 0x00	; 0
    1cc2:	30 e0       	ldi	r19, 0x00	; 0
    1cc4:	40 e2       	ldi	r20, 0x20	; 32
    1cc6:	51 e4       	ldi	r21, 0x41	; 65
    1cc8:	69 81       	ldd	r22, Y+1	; 0x01
    1cca:	7a 81       	ldd	r23, Y+2	; 0x02
    1ccc:	8b 81       	ldd	r24, Y+3	; 0x03
    1cce:	9c 81       	ldd	r25, Y+4	; 0x04
    1cd0:	0e 94 50 17 	call	0x2ea0	; 0x2ea0 <__mulsf3>
    1cd4:	cf 53       	subi	r28, 0x3F	; 63
    1cd6:	df 4f       	sbci	r29, 0xFF	; 255
    1cd8:	68 83       	st	Y, r22
    1cda:	79 83       	std	Y+1, r23	; 0x01
    1cdc:	8a 83       	std	Y+2, r24	; 0x02
    1cde:	9b 83       	std	Y+3, r25	; 0x03
    1ce0:	c1 5c       	subi	r28, 0xC1	; 193
    1ce2:	d0 40       	sbci	r29, 0x00	; 0
    1ce4:	cf 53       	subi	r28, 0x3F	; 63
    1ce6:	df 4f       	sbci	r29, 0xFF	; 255
    1ce8:	88 81       	ld	r24, Y
    1cea:	99 81       	ldd	r25, Y+1	; 0x01
    1cec:	aa 81       	ldd	r26, Y+2	; 0x02
    1cee:	bb 81       	ldd	r27, Y+3	; 0x03
    1cf0:	c1 5c       	subi	r28, 0xC1	; 193
    1cf2:	d0 40       	sbci	r29, 0x00	; 0
    1cf4:	69 96       	adiw	r28, 0x19	; 25
    1cf6:	8c af       	std	Y+60, r24	; 0x3c
    1cf8:	9d af       	std	Y+61, r25	; 0x3d
    1cfa:	ae af       	std	Y+62, r26	; 0x3e
    1cfc:	bf af       	std	Y+63, r27	; 0x3f
    1cfe:	69 97       	sbiw	r28, 0x19	; 25
    1d00:	69 96       	adiw	r28, 0x19	; 25
    1d02:	6c ad       	ldd	r22, Y+60	; 0x3c
    1d04:	7d ad       	ldd	r23, Y+61	; 0x3d
    1d06:	8e ad       	ldd	r24, Y+62	; 0x3e
    1d08:	9f ad       	ldd	r25, Y+63	; 0x3f
    1d0a:	69 97       	sbiw	r28, 0x19	; 25
    1d0c:	0e 94 cf 16 	call	0x2d9e	; 0x2d9e <__fixunssfsi>
    1d10:	cb 53       	subi	r28, 0x3B	; 59
    1d12:	df 4f       	sbci	r29, 0xFF	; 255
    1d14:	68 83       	st	Y, r22
    1d16:	79 83       	std	Y+1, r23	; 0x01
    1d18:	8a 83       	std	Y+2, r24	; 0x02
    1d1a:	9b 83       	std	Y+3, r25	; 0x03
    1d1c:	c5 5c       	subi	r28, 0xC5	; 197
    1d1e:	d0 40       	sbci	r29, 0x00	; 0
    1d20:	cb 53       	subi	r28, 0x3B	; 59
    1d22:	df 4f       	sbci	r29, 0xFF	; 255
    1d24:	a8 81       	ld	r26, Y
    1d26:	b9 81       	ldd	r27, Y+1	; 0x01
    1d28:	c5 5c       	subi	r28, 0xC5	; 197
    1d2a:	d0 40       	sbci	r29, 0x00	; 0
    1d2c:	ba 87       	std	Y+10, r27	; 0x0a
    1d2e:	a9 87       	std	Y+9, r26	; 0x09
    1d30:	10 c0       	rjmp	.+32     	; 0x1d52 <HAL_LCD_voidInit+0x97e>
    1d32:	88 ec       	ldi	r24, 0xC8	; 200
    1d34:	90 e0       	ldi	r25, 0x00	; 0
    1d36:	9c 87       	std	Y+12, r25	; 0x0c
    1d38:	8b 87       	std	Y+11, r24	; 0x0b
    1d3a:	8b 85       	ldd	r24, Y+11	; 0x0b
    1d3c:	9c 85       	ldd	r25, Y+12	; 0x0c
    1d3e:	01 97       	sbiw	r24, 0x01	; 1
    1d40:	f1 f7       	brne	.-4      	; 0x1d3e <HAL_LCD_voidInit+0x96a>
    1d42:	9c 87       	std	Y+12, r25	; 0x0c
    1d44:	8b 87       	std	Y+11, r24	; 0x0b
    1d46:	00 00       	nop
    1d48:	89 85       	ldd	r24, Y+9	; 0x09
    1d4a:	9a 85       	ldd	r25, Y+10	; 0x0a
    1d4c:	01 97       	sbiw	r24, 0x01	; 1
    1d4e:	9a 87       	std	Y+10, r25	; 0x0a
    1d50:	89 87       	std	Y+9, r24	; 0x09
    1d52:	89 85       	ldd	r24, Y+9	; 0x09
    1d54:	9a 85       	ldd	r25, Y+10	; 0x0a
    1d56:	89 2b       	or	r24, r25
    1d58:	61 f7       	brne	.-40     	; 0x1d32 <HAL_LCD_voidInit+0x95e>
    1d5a:	21 c0       	rjmp	.+66     	; 0x1d9e <HAL_LCD_voidInit+0x9ca>
    1d5c:	6d 81       	ldd	r22, Y+5	; 0x05
    1d5e:	7e 81       	ldd	r23, Y+6	; 0x06
    1d60:	8f 81       	ldd	r24, Y+7	; 0x07
    1d62:	98 85       	ldd	r25, Y+8	; 0x08
    1d64:	0e 94 cf 16 	call	0x2d9e	; 0x2d9e <__fixunssfsi>
    1d68:	c7 53       	subi	r28, 0x37	; 55
    1d6a:	df 4f       	sbci	r29, 0xFF	; 255
    1d6c:	68 83       	st	Y, r22
    1d6e:	79 83       	std	Y+1, r23	; 0x01
    1d70:	8a 83       	std	Y+2, r24	; 0x02
    1d72:	9b 83       	std	Y+3, r25	; 0x03
    1d74:	c9 5c       	subi	r28, 0xC9	; 201
    1d76:	d0 40       	sbci	r29, 0x00	; 0
    1d78:	c7 53       	subi	r28, 0x37	; 55
    1d7a:	df 4f       	sbci	r29, 0xFF	; 255
    1d7c:	e8 81       	ld	r30, Y
    1d7e:	f9 81       	ldd	r31, Y+1	; 0x01
    1d80:	c9 5c       	subi	r28, 0xC9	; 201
    1d82:	d0 40       	sbci	r29, 0x00	; 0
    1d84:	fa 87       	std	Y+10, r31	; 0x0a
    1d86:	e9 87       	std	Y+9, r30	; 0x09
    1d88:	89 85       	ldd	r24, Y+9	; 0x09
    1d8a:	9a 85       	ldd	r25, Y+10	; 0x0a
    1d8c:	9e 87       	std	Y+14, r25	; 0x0e
    1d8e:	8d 87       	std	Y+13, r24	; 0x0d
    1d90:	8d 85       	ldd	r24, Y+13	; 0x0d
    1d92:	9e 85       	ldd	r25, Y+14	; 0x0e
    1d94:	01 97       	sbiw	r24, 0x01	; 1
    1d96:	f1 f7       	brne	.-4      	; 0x1d94 <HAL_LCD_voidInit+0x9c0>
    1d98:	9e 87       	std	Y+14, r25	; 0x0e
    1d9a:	8d 87       	std	Y+13, r24	; 0x0d
    1d9c:	00 00       	nop
    1d9e:	00 00       	nop
    1da0:	c4 53       	subi	r28, 0x34	; 52
    1da2:	df 4f       	sbci	r29, 0xFF	; 255
    1da4:	0f b6       	in	r0, 0x3f	; 63
    1da6:	f8 94       	cli
    1da8:	de bf       	out	0x3e, r29	; 62
    1daa:	0f be       	out	0x3f, r0	; 63
    1dac:	cd bf       	out	0x3d, r28	; 61
    1dae:	df 91       	pop	r29
    1db0:	cf 91       	pop	r28
    1db2:	1f 91       	pop	r17
    1db4:	0f 91       	pop	r16
    1db6:	08 95       	ret

00001db8 <HAL_TURN_ON_LED_1>:
    1db8:	cf 93       	push	r28
    1dba:	df 93       	push	r29
    1dbc:	cd b7       	in	r28, 0x3d	; 61
    1dbe:	de b7       	in	r29, 0x3e	; 62
    1dc0:	41 e0       	ldi	r20, 0x01	; 1
    1dc2:	60 e0       	ldi	r22, 0x00	; 0
    1dc4:	83 e0       	ldi	r24, 0x03	; 3
    1dc6:	0e 94 49 00 	call	0x92	; 0x92 <MCAL_DIO_u8SetPinDir>
    1dca:	41 e0       	ldi	r20, 0x01	; 1
    1dcc:	60 e0       	ldi	r22, 0x00	; 0
    1dce:	83 e0       	ldi	r24, 0x03	; 3
    1dd0:	0e 94 46 01 	call	0x28c	; 0x28c <MCAL_DIO_u8SetPinValue>
    1dd4:	00 00       	nop
    1dd6:	df 91       	pop	r29
    1dd8:	cf 91       	pop	r28
    1dda:	08 95       	ret

00001ddc <HAL_TURN_OFF_LED_1>:
    1ddc:	cf 93       	push	r28
    1dde:	df 93       	push	r29
    1de0:	cd b7       	in	r28, 0x3d	; 61
    1de2:	de b7       	in	r29, 0x3e	; 62
    1de4:	41 e0       	ldi	r20, 0x01	; 1
    1de6:	60 e0       	ldi	r22, 0x00	; 0
    1de8:	80 e0       	ldi	r24, 0x00	; 0
    1dea:	0e 94 49 00 	call	0x92	; 0x92 <MCAL_DIO_u8SetPinDir>
    1dee:	40 e0       	ldi	r20, 0x00	; 0
    1df0:	60 e0       	ldi	r22, 0x00	; 0
    1df2:	83 e0       	ldi	r24, 0x03	; 3
    1df4:	0e 94 46 01 	call	0x28c	; 0x28c <MCAL_DIO_u8SetPinValue>
    1df8:	00 00       	nop
    1dfa:	df 91       	pop	r29
    1dfc:	cf 91       	pop	r28
    1dfe:	08 95       	ret

00001e00 <HAL_TURN_ON_LED_2>:
    1e00:	cf 93       	push	r28
    1e02:	df 93       	push	r29
    1e04:	cd b7       	in	r28, 0x3d	; 61
    1e06:	de b7       	in	r29, 0x3e	; 62
    1e08:	41 e0       	ldi	r20, 0x01	; 1
    1e0a:	61 e0       	ldi	r22, 0x01	; 1
    1e0c:	83 e0       	ldi	r24, 0x03	; 3
    1e0e:	0e 94 49 00 	call	0x92	; 0x92 <MCAL_DIO_u8SetPinDir>
    1e12:	41 e0       	ldi	r20, 0x01	; 1
    1e14:	61 e0       	ldi	r22, 0x01	; 1
    1e16:	83 e0       	ldi	r24, 0x03	; 3
    1e18:	0e 94 46 01 	call	0x28c	; 0x28c <MCAL_DIO_u8SetPinValue>
    1e1c:	00 00       	nop
    1e1e:	df 91       	pop	r29
    1e20:	cf 91       	pop	r28
    1e22:	08 95       	ret

00001e24 <HAL_TURN_OFF_LED_2>:
    1e24:	cf 93       	push	r28
    1e26:	df 93       	push	r29
    1e28:	cd b7       	in	r28, 0x3d	; 61
    1e2a:	de b7       	in	r29, 0x3e	; 62
    1e2c:	41 e0       	ldi	r20, 0x01	; 1
    1e2e:	61 e0       	ldi	r22, 0x01	; 1
    1e30:	80 e0       	ldi	r24, 0x00	; 0
    1e32:	0e 94 49 00 	call	0x92	; 0x92 <MCAL_DIO_u8SetPinDir>
    1e36:	40 e0       	ldi	r20, 0x00	; 0
    1e38:	61 e0       	ldi	r22, 0x01	; 1
    1e3a:	83 e0       	ldi	r24, 0x03	; 3
    1e3c:	0e 94 46 01 	call	0x28c	; 0x28c <MCAL_DIO_u8SetPinValue>
    1e40:	00 00       	nop
    1e42:	df 91       	pop	r29
    1e44:	cf 91       	pop	r28
    1e46:	08 95       	ret

00001e48 <HAL_TURN_ON_LED_3>:
    1e48:	cf 93       	push	r28
    1e4a:	df 93       	push	r29
    1e4c:	cd b7       	in	r28, 0x3d	; 61
    1e4e:	de b7       	in	r29, 0x3e	; 62
    1e50:	41 e0       	ldi	r20, 0x01	; 1
    1e52:	62 e0       	ldi	r22, 0x02	; 2
    1e54:	83 e0       	ldi	r24, 0x03	; 3
    1e56:	0e 94 49 00 	call	0x92	; 0x92 <MCAL_DIO_u8SetPinDir>
    1e5a:	41 e0       	ldi	r20, 0x01	; 1
    1e5c:	62 e0       	ldi	r22, 0x02	; 2
    1e5e:	83 e0       	ldi	r24, 0x03	; 3
    1e60:	0e 94 46 01 	call	0x28c	; 0x28c <MCAL_DIO_u8SetPinValue>
    1e64:	00 00       	nop
    1e66:	df 91       	pop	r29
    1e68:	cf 91       	pop	r28
    1e6a:	08 95       	ret

00001e6c <HAL_TURN_OFF_LED_3>:
    1e6c:	cf 93       	push	r28
    1e6e:	df 93       	push	r29
    1e70:	cd b7       	in	r28, 0x3d	; 61
    1e72:	de b7       	in	r29, 0x3e	; 62
    1e74:	41 e0       	ldi	r20, 0x01	; 1
    1e76:	62 e0       	ldi	r22, 0x02	; 2
    1e78:	80 e0       	ldi	r24, 0x00	; 0
    1e7a:	0e 94 49 00 	call	0x92	; 0x92 <MCAL_DIO_u8SetPinDir>
    1e7e:	40 e0       	ldi	r20, 0x00	; 0
    1e80:	62 e0       	ldi	r22, 0x02	; 2
    1e82:	83 e0       	ldi	r24, 0x03	; 3
    1e84:	0e 94 46 01 	call	0x28c	; 0x28c <MCAL_DIO_u8SetPinValue>
    1e88:	00 00       	nop
    1e8a:	df 91       	pop	r29
    1e8c:	cf 91       	pop	r28
    1e8e:	08 95       	ret

00001e90 <main>:
    1e90:	cf 93       	push	r28
    1e92:	df 93       	push	r29
    1e94:	cd b7       	in	r28, 0x3d	; 61
    1e96:	de b7       	in	r29, 0x3e	; 62
    1e98:	0e 94 ea 09 	call	0x13d4	; 0x13d4 <HAL_LCD_voidInit>
    1e9c:	0e 94 25 10 	call	0x204a	; 0x204a <MCAL_SPI_SlaveInit>
    1ea0:	80 91 6a 00 	lds	r24, 0x006A	; 0x80006a <Done>
    1ea4:	67 e5       	ldi	r22, 0x57	; 87
    1ea6:	7f e0       	ldi	r23, 0x0F	; 15
    1ea8:	0e 94 4e 11 	call	0x229c	; 0x229c <MCAL_SPI_Slave_DataCallBack>
    1eac:	f9 cf       	rjmp	.-14     	; 0x1ea0 <main+0x10>

00001eae <App_function>:
    1eae:	cf 93       	push	r28
    1eb0:	df 93       	push	r29
    1eb2:	0f 92       	push	r0
    1eb4:	cd b7       	in	r28, 0x3d	; 61
    1eb6:	de b7       	in	r29, 0x3e	; 62
    1eb8:	89 83       	std	Y+1, r24	; 0x01
    1eba:	89 81       	ldd	r24, Y+1	; 0x01
    1ebc:	81 30       	cpi	r24, 0x01	; 1
    1ebe:	19 f4       	brne	.+6      	; 0x1ec6 <App_function+0x18>
    1ec0:	0e 94 dc 0e 	call	0x1db8	; 0x1db8 <HAL_TURN_ON_LED_1>
    1ec4:	1d c0       	rjmp	.+58     	; 0x1f00 <App_function+0x52>
    1ec6:	89 81       	ldd	r24, Y+1	; 0x01
    1ec8:	82 30       	cpi	r24, 0x02	; 2
    1eca:	19 f4       	brne	.+6      	; 0x1ed2 <App_function+0x24>
    1ecc:	0e 94 ee 0e 	call	0x1ddc	; 0x1ddc <HAL_TURN_OFF_LED_1>
    1ed0:	17 c0       	rjmp	.+46     	; 0x1f00 <App_function+0x52>
    1ed2:	89 81       	ldd	r24, Y+1	; 0x01
    1ed4:	83 30       	cpi	r24, 0x03	; 3
    1ed6:	19 f4       	brne	.+6      	; 0x1ede <App_function+0x30>
    1ed8:	0e 94 00 0f 	call	0x1e00	; 0x1e00 <HAL_TURN_ON_LED_2>
    1edc:	11 c0       	rjmp	.+34     	; 0x1f00 <App_function+0x52>
    1ede:	89 81       	ldd	r24, Y+1	; 0x01
    1ee0:	84 30       	cpi	r24, 0x04	; 4
    1ee2:	19 f4       	brne	.+6      	; 0x1eea <App_function+0x3c>
    1ee4:	0e 94 12 0f 	call	0x1e24	; 0x1e24 <HAL_TURN_OFF_LED_2>
    1ee8:	0b c0       	rjmp	.+22     	; 0x1f00 <App_function+0x52>
    1eea:	89 81       	ldd	r24, Y+1	; 0x01
    1eec:	85 30       	cpi	r24, 0x05	; 5
    1eee:	19 f4       	brne	.+6      	; 0x1ef6 <App_function+0x48>
    1ef0:	0e 94 24 0f 	call	0x1e48	; 0x1e48 <HAL_TURN_ON_LED_3>
    1ef4:	05 c0       	rjmp	.+10     	; 0x1f00 <App_function+0x52>
    1ef6:	89 81       	ldd	r24, Y+1	; 0x01
    1ef8:	86 30       	cpi	r24, 0x06	; 6
    1efa:	11 f4       	brne	.+4      	; 0x1f00 <App_function+0x52>
    1efc:	0e 94 36 0f 	call	0x1e6c	; 0x1e6c <HAL_TURN_OFF_LED_3>
    1f00:	00 00       	nop
    1f02:	0f 90       	pop	r0
    1f04:	df 91       	pop	r29
    1f06:	cf 91       	pop	r28
    1f08:	08 95       	ret

00001f0a <MCAL_SPI_MasterInit>:
    1f0a:	cf 93       	push	r28
    1f0c:	df 93       	push	r29
    1f0e:	00 d0       	rcall	.+0      	; 0x1f10 <MCAL_SPI_MasterInit+0x6>
    1f10:	cd b7       	in	r28, 0x3d	; 61
    1f12:	de b7       	in	r29, 0x3e	; 62
    1f14:	8a 83       	std	Y+2, r24	; 0x02
    1f16:	81 e0       	ldi	r24, 0x01	; 1
    1f18:	89 83       	std	Y+1, r24	; 0x01
    1f1a:	8d e2       	ldi	r24, 0x2D	; 45
    1f1c:	90 e0       	ldi	r25, 0x00	; 0
    1f1e:	fc 01       	movw	r30, r24
    1f20:	20 81       	ld	r18, Z
    1f22:	8d e2       	ldi	r24, 0x2D	; 45
    1f24:	90 e0       	ldi	r25, 0x00	; 0
    1f26:	2f 7d       	andi	r18, 0xDF	; 223
    1f28:	fc 01       	movw	r30, r24
    1f2a:	20 83       	st	Z, r18
    1f2c:	8d e2       	ldi	r24, 0x2D	; 45
    1f2e:	90 e0       	ldi	r25, 0x00	; 0
    1f30:	fc 01       	movw	r30, r24
    1f32:	20 81       	ld	r18, Z
    1f34:	8d e2       	ldi	r24, 0x2D	; 45
    1f36:	90 e0       	ldi	r25, 0x00	; 0
    1f38:	28 60       	ori	r18, 0x08	; 8
    1f3a:	fc 01       	movw	r30, r24
    1f3c:	20 83       	st	Z, r18
    1f3e:	8d e2       	ldi	r24, 0x2D	; 45
    1f40:	90 e0       	ldi	r25, 0x00	; 0
    1f42:	fc 01       	movw	r30, r24
    1f44:	20 81       	ld	r18, Z
    1f46:	8d e2       	ldi	r24, 0x2D	; 45
    1f48:	90 e0       	ldi	r25, 0x00	; 0
    1f4a:	24 60       	ori	r18, 0x04	; 4
    1f4c:	fc 01       	movw	r30, r24
    1f4e:	20 83       	st	Z, r18
    1f50:	41 e0       	ldi	r20, 0x01	; 1
    1f52:	65 e0       	ldi	r22, 0x05	; 5
    1f54:	81 e0       	ldi	r24, 0x01	; 1
    1f56:	0e 94 49 00 	call	0x92	; 0x92 <MCAL_DIO_u8SetPinDir>
    1f5a:	40 e0       	ldi	r20, 0x00	; 0
    1f5c:	66 e0       	ldi	r22, 0x06	; 6
    1f5e:	81 e0       	ldi	r24, 0x01	; 1
    1f60:	0e 94 49 00 	call	0x92	; 0x92 <MCAL_DIO_u8SetPinDir>
    1f64:	41 e0       	ldi	r20, 0x01	; 1
    1f66:	67 e0       	ldi	r22, 0x07	; 7
    1f68:	81 e0       	ldi	r24, 0x01	; 1
    1f6a:	0e 94 49 00 	call	0x92	; 0x92 <MCAL_DIO_u8SetPinDir>
    1f6e:	41 e0       	ldi	r20, 0x01	; 1
    1f70:	64 e0       	ldi	r22, 0x04	; 4
    1f72:	81 e0       	ldi	r24, 0x01	; 1
    1f74:	0e 94 49 00 	call	0x92	; 0x92 <MCAL_DIO_u8SetPinDir>
    1f78:	41 e0       	ldi	r20, 0x01	; 1
    1f7a:	67 e0       	ldi	r22, 0x07	; 7
    1f7c:	81 e0       	ldi	r24, 0x01	; 1
    1f7e:	0e 94 46 01 	call	0x28c	; 0x28c <MCAL_DIO_u8SetPinValue>
    1f82:	8d e2       	ldi	r24, 0x2D	; 45
    1f84:	90 e0       	ldi	r25, 0x00	; 0
    1f86:	fc 01       	movw	r30, r24
    1f88:	20 81       	ld	r18, Z
    1f8a:	8d e2       	ldi	r24, 0x2D	; 45
    1f8c:	90 e0       	ldi	r25, 0x00	; 0
    1f8e:	20 61       	ori	r18, 0x10	; 16
    1f90:	fc 01       	movw	r30, r24
    1f92:	20 83       	st	Z, r18
    1f94:	8d e2       	ldi	r24, 0x2D	; 45
    1f96:	90 e0       	ldi	r25, 0x00	; 0
    1f98:	fc 01       	movw	r30, r24
    1f9a:	20 81       	ld	r18, Z
    1f9c:	8d e2       	ldi	r24, 0x2D	; 45
    1f9e:	90 e0       	ldi	r25, 0x00	; 0
    1fa0:	2e 7f       	andi	r18, 0xFE	; 254
    1fa2:	fc 01       	movw	r30, r24
    1fa4:	20 83       	st	Z, r18
    1fa6:	8d e2       	ldi	r24, 0x2D	; 45
    1fa8:	90 e0       	ldi	r25, 0x00	; 0
    1faa:	fc 01       	movw	r30, r24
    1fac:	20 81       	ld	r18, Z
    1fae:	8d e2       	ldi	r24, 0x2D	; 45
    1fb0:	90 e0       	ldi	r25, 0x00	; 0
    1fb2:	2d 7f       	andi	r18, 0xFD	; 253
    1fb4:	fc 01       	movw	r30, r24
    1fb6:	20 83       	st	Z, r18
    1fb8:	8e e2       	ldi	r24, 0x2E	; 46
    1fba:	90 e0       	ldi	r25, 0x00	; 0
    1fbc:	fc 01       	movw	r30, r24
    1fbe:	20 81       	ld	r18, Z
    1fc0:	8e e2       	ldi	r24, 0x2E	; 46
    1fc2:	90 e0       	ldi	r25, 0x00	; 0
    1fc4:	2e 7f       	andi	r18, 0xFE	; 254
    1fc6:	fc 01       	movw	r30, r24
    1fc8:	20 83       	st	Z, r18
    1fca:	8a 81       	ldd	r24, Y+2	; 0x02
    1fcc:	83 30       	cpi	r24, 0x03	; 3
    1fce:	b0 f5       	brcc	.+108    	; 0x203c <MCAL_SPI_MasterInit+0x132>
    1fd0:	8d e2       	ldi	r24, 0x2D	; 45
    1fd2:	90 e0       	ldi	r25, 0x00	; 0
    1fd4:	fc 01       	movw	r30, r24
    1fd6:	80 81       	ld	r24, Z
    1fd8:	88 2f       	mov	r24, r24
    1fda:	90 e0       	ldi	r25, 0x00	; 0
    1fdc:	9c 01       	movw	r18, r24
    1fde:	2c 7f       	andi	r18, 0xFC	; 252
    1fe0:	33 27       	eor	r19, r19
    1fe2:	8a 81       	ldd	r24, Y+2	; 0x02
    1fe4:	88 2f       	mov	r24, r24
    1fe6:	90 e0       	ldi	r25, 0x00	; 0
    1fe8:	83 70       	andi	r24, 0x03	; 3
    1fea:	99 27       	eor	r25, r25
    1fec:	28 2b       	or	r18, r24
    1fee:	39 2b       	or	r19, r25
    1ff0:	8d e2       	ldi	r24, 0x2D	; 45
    1ff2:	90 e0       	ldi	r25, 0x00	; 0
    1ff4:	fc 01       	movw	r30, r24
    1ff6:	80 81       	ld	r24, Z
    1ff8:	98 2f       	mov	r25, r24
    1ffa:	82 2f       	mov	r24, r18
    1ffc:	29 2f       	mov	r18, r25
    1ffe:	28 2b       	or	r18, r24
    2000:	8d e2       	ldi	r24, 0x2D	; 45
    2002:	90 e0       	ldi	r25, 0x00	; 0
    2004:	fc 01       	movw	r30, r24
    2006:	20 83       	st	Z, r18
    2008:	8a 81       	ldd	r24, Y+2	; 0x02
    200a:	84 30       	cpi	r24, 0x04	; 4
    200c:	48 f0       	brcs	.+18     	; 0x2020 <MCAL_SPI_MasterInit+0x116>
    200e:	8e e2       	ldi	r24, 0x2E	; 46
    2010:	90 e0       	ldi	r25, 0x00	; 0
    2012:	fc 01       	movw	r30, r24
    2014:	20 81       	ld	r18, Z
    2016:	8e e2       	ldi	r24, 0x2E	; 46
    2018:	90 e0       	ldi	r25, 0x00	; 0
    201a:	21 60       	ori	r18, 0x01	; 1
    201c:	fc 01       	movw	r30, r24
    201e:	20 83       	st	Z, r18
    2020:	8d e2       	ldi	r24, 0x2D	; 45
    2022:	90 e0       	ldi	r25, 0x00	; 0
    2024:	fc 01       	movw	r30, r24
    2026:	20 81       	ld	r18, Z
    2028:	8d e2       	ldi	r24, 0x2D	; 45
    202a:	90 e0       	ldi	r25, 0x00	; 0
    202c:	20 64       	ori	r18, 0x40	; 64
    202e:	fc 01       	movw	r30, r24
    2030:	20 83       	st	Z, r18
    2032:	10 92 6c 00 	sts	0x006C, r1	; 0x80006c <Call_Back_Master+0x1>
    2036:	10 92 6b 00 	sts	0x006B, r1	; 0x80006b <Call_Back_Master>
    203a:	01 c0       	rjmp	.+2      	; 0x203e <MCAL_SPI_MasterInit+0x134>
    203c:	19 82       	std	Y+1, r1	; 0x01
    203e:	89 81       	ldd	r24, Y+1	; 0x01
    2040:	0f 90       	pop	r0
    2042:	0f 90       	pop	r0
    2044:	df 91       	pop	r29
    2046:	cf 91       	pop	r28
    2048:	08 95       	ret

0000204a <MCAL_SPI_SlaveInit>:
    204a:	cf 93       	push	r28
    204c:	df 93       	push	r29
    204e:	0f 92       	push	r0
    2050:	cd b7       	in	r28, 0x3d	; 61
    2052:	de b7       	in	r29, 0x3e	; 62
    2054:	81 e0       	ldi	r24, 0x01	; 1
    2056:	89 83       	std	Y+1, r24	; 0x01
    2058:	8d e2       	ldi	r24, 0x2D	; 45
    205a:	90 e0       	ldi	r25, 0x00	; 0
    205c:	fc 01       	movw	r30, r24
    205e:	20 81       	ld	r18, Z
    2060:	8d e2       	ldi	r24, 0x2D	; 45
    2062:	90 e0       	ldi	r25, 0x00	; 0
    2064:	2f 7d       	andi	r18, 0xDF	; 223
    2066:	fc 01       	movw	r30, r24
    2068:	20 83       	st	Z, r18
    206a:	8d e2       	ldi	r24, 0x2D	; 45
    206c:	90 e0       	ldi	r25, 0x00	; 0
    206e:	fc 01       	movw	r30, r24
    2070:	20 81       	ld	r18, Z
    2072:	8d e2       	ldi	r24, 0x2D	; 45
    2074:	90 e0       	ldi	r25, 0x00	; 0
    2076:	28 60       	ori	r18, 0x08	; 8
    2078:	fc 01       	movw	r30, r24
    207a:	20 83       	st	Z, r18
    207c:	8d e2       	ldi	r24, 0x2D	; 45
    207e:	90 e0       	ldi	r25, 0x00	; 0
    2080:	fc 01       	movw	r30, r24
    2082:	20 81       	ld	r18, Z
    2084:	8d e2       	ldi	r24, 0x2D	; 45
    2086:	90 e0       	ldi	r25, 0x00	; 0
    2088:	24 60       	ori	r18, 0x04	; 4
    208a:	fc 01       	movw	r30, r24
    208c:	20 83       	st	Z, r18
    208e:	40 e0       	ldi	r20, 0x00	; 0
    2090:	65 e0       	ldi	r22, 0x05	; 5
    2092:	81 e0       	ldi	r24, 0x01	; 1
    2094:	0e 94 49 00 	call	0x92	; 0x92 <MCAL_DIO_u8SetPinDir>
    2098:	41 e0       	ldi	r20, 0x01	; 1
    209a:	66 e0       	ldi	r22, 0x06	; 6
    209c:	81 e0       	ldi	r24, 0x01	; 1
    209e:	0e 94 49 00 	call	0x92	; 0x92 <MCAL_DIO_u8SetPinDir>
    20a2:	40 e0       	ldi	r20, 0x00	; 0
    20a4:	67 e0       	ldi	r22, 0x07	; 7
    20a6:	81 e0       	ldi	r24, 0x01	; 1
    20a8:	0e 94 49 00 	call	0x92	; 0x92 <MCAL_DIO_u8SetPinDir>
    20ac:	40 e0       	ldi	r20, 0x00	; 0
    20ae:	64 e0       	ldi	r22, 0x04	; 4
    20b0:	81 e0       	ldi	r24, 0x01	; 1
    20b2:	0e 94 49 00 	call	0x92	; 0x92 <MCAL_DIO_u8SetPinDir>
    20b6:	8d e2       	ldi	r24, 0x2D	; 45
    20b8:	90 e0       	ldi	r25, 0x00	; 0
    20ba:	fc 01       	movw	r30, r24
    20bc:	20 81       	ld	r18, Z
    20be:	8d e2       	ldi	r24, 0x2D	; 45
    20c0:	90 e0       	ldi	r25, 0x00	; 0
    20c2:	2f 7e       	andi	r18, 0xEF	; 239
    20c4:	fc 01       	movw	r30, r24
    20c6:	20 83       	st	Z, r18
    20c8:	8d e2       	ldi	r24, 0x2D	; 45
    20ca:	90 e0       	ldi	r25, 0x00	; 0
    20cc:	fc 01       	movw	r30, r24
    20ce:	20 81       	ld	r18, Z
    20d0:	8d e2       	ldi	r24, 0x2D	; 45
    20d2:	90 e0       	ldi	r25, 0x00	; 0
    20d4:	20 64       	ori	r18, 0x40	; 64
    20d6:	fc 01       	movw	r30, r24
    20d8:	20 83       	st	Z, r18
    20da:	10 92 6e 00 	sts	0x006E, r1	; 0x80006e <Call_Back_Slave+0x1>
    20de:	10 92 6d 00 	sts	0x006D, r1	; 0x80006d <Call_Back_Slave>
    20e2:	89 81       	ldd	r24, Y+1	; 0x01
    20e4:	0f 90       	pop	r0
    20e6:	df 91       	pop	r29
    20e8:	cf 91       	pop	r28
    20ea:	08 95       	ret

000020ec <MCAL_SPI_Master_DataBusyWait>:
    20ec:	cf 93       	push	r28
    20ee:	df 93       	push	r29
    20f0:	00 d0       	rcall	.+0      	; 0x20f2 <MCAL_SPI_Master_DataBusyWait+0x6>
    20f2:	0f 92       	push	r0
    20f4:	cd b7       	in	r28, 0x3d	; 61
    20f6:	de b7       	in	r29, 0x3e	; 62
    20f8:	89 83       	std	Y+1, r24	; 0x01
    20fa:	7b 83       	std	Y+3, r23	; 0x03
    20fc:	6a 83       	std	Y+2, r22	; 0x02
    20fe:	8d e2       	ldi	r24, 0x2D	; 45
    2100:	90 e0       	ldi	r25, 0x00	; 0
    2102:	fc 01       	movw	r30, r24
    2104:	20 81       	ld	r18, Z
    2106:	8d e2       	ldi	r24, 0x2D	; 45
    2108:	90 e0       	ldi	r25, 0x00	; 0
    210a:	2f 77       	andi	r18, 0x7F	; 127
    210c:	fc 01       	movw	r30, r24
    210e:	20 83       	st	Z, r18
    2110:	8f e2       	ldi	r24, 0x2F	; 47
    2112:	90 e0       	ldi	r25, 0x00	; 0
    2114:	29 81       	ldd	r18, Y+1	; 0x01
    2116:	fc 01       	movw	r30, r24
    2118:	20 83       	st	Z, r18
    211a:	40 e0       	ldi	r20, 0x00	; 0
    211c:	64 e0       	ldi	r22, 0x04	; 4
    211e:	81 e0       	ldi	r24, 0x01	; 1
    2120:	0e 94 46 01 	call	0x28c	; 0x28c <MCAL_DIO_u8SetPinValue>
    2124:	8d e2       	ldi	r24, 0x2D	; 45
    2126:	90 e0       	ldi	r25, 0x00	; 0
    2128:	fc 01       	movw	r30, r24
    212a:	20 81       	ld	r18, Z
    212c:	8d e2       	ldi	r24, 0x2D	; 45
    212e:	90 e0       	ldi	r25, 0x00	; 0
    2130:	20 64       	ori	r18, 0x40	; 64
    2132:	fc 01       	movw	r30, r24
    2134:	20 83       	st	Z, r18
    2136:	00 00       	nop
    2138:	8e e2       	ldi	r24, 0x2E	; 46
    213a:	90 e0       	ldi	r25, 0x00	; 0
    213c:	fc 01       	movw	r30, r24
    213e:	80 81       	ld	r24, Z
    2140:	88 1f       	adc	r24, r24
    2142:	88 27       	eor	r24, r24
    2144:	88 1f       	adc	r24, r24
    2146:	88 2f       	mov	r24, r24
    2148:	90 e0       	ldi	r25, 0x00	; 0
    214a:	81 70       	andi	r24, 0x01	; 1
    214c:	99 27       	eor	r25, r25
    214e:	01 97       	sbiw	r24, 0x01	; 1
    2150:	99 f7       	brne	.-26     	; 0x2138 <MCAL_SPI_Master_DataBusyWait+0x4c>
    2152:	8f e2       	ldi	r24, 0x2F	; 47
    2154:	90 e0       	ldi	r25, 0x00	; 0
    2156:	fc 01       	movw	r30, r24
    2158:	20 81       	ld	r18, Z
    215a:	8a 81       	ldd	r24, Y+2	; 0x02
    215c:	9b 81       	ldd	r25, Y+3	; 0x03
    215e:	fc 01       	movw	r30, r24
    2160:	20 83       	st	Z, r18
    2162:	8d e2       	ldi	r24, 0x2D	; 45
    2164:	90 e0       	ldi	r25, 0x00	; 0
    2166:	fc 01       	movw	r30, r24
    2168:	20 81       	ld	r18, Z
    216a:	8d e2       	ldi	r24, 0x2D	; 45
    216c:	90 e0       	ldi	r25, 0x00	; 0
    216e:	2f 7b       	andi	r18, 0xBF	; 191
    2170:	fc 01       	movw	r30, r24
    2172:	20 83       	st	Z, r18
    2174:	41 e0       	ldi	r20, 0x01	; 1
    2176:	64 e0       	ldi	r22, 0x04	; 4
    2178:	81 e0       	ldi	r24, 0x01	; 1
    217a:	0e 94 46 01 	call	0x28c	; 0x28c <MCAL_DIO_u8SetPinValue>
    217e:	00 00       	nop
    2180:	0f 90       	pop	r0
    2182:	0f 90       	pop	r0
    2184:	0f 90       	pop	r0
    2186:	df 91       	pop	r29
    2188:	cf 91       	pop	r28
    218a:	08 95       	ret

0000218c <MCAL_SPI_Slave_DataBusyWait>:
    218c:	cf 93       	push	r28
    218e:	df 93       	push	r29
    2190:	00 d0       	rcall	.+0      	; 0x2192 <MCAL_SPI_Slave_DataBusyWait+0x6>
    2192:	0f 92       	push	r0
    2194:	cd b7       	in	r28, 0x3d	; 61
    2196:	de b7       	in	r29, 0x3e	; 62
    2198:	89 83       	std	Y+1, r24	; 0x01
    219a:	7b 83       	std	Y+3, r23	; 0x03
    219c:	6a 83       	std	Y+2, r22	; 0x02
    219e:	8d e2       	ldi	r24, 0x2D	; 45
    21a0:	90 e0       	ldi	r25, 0x00	; 0
    21a2:	fc 01       	movw	r30, r24
    21a4:	20 81       	ld	r18, Z
    21a6:	8d e2       	ldi	r24, 0x2D	; 45
    21a8:	90 e0       	ldi	r25, 0x00	; 0
    21aa:	2f 77       	andi	r18, 0x7F	; 127
    21ac:	fc 01       	movw	r30, r24
    21ae:	20 83       	st	Z, r18
    21b0:	8f e2       	ldi	r24, 0x2F	; 47
    21b2:	90 e0       	ldi	r25, 0x00	; 0
    21b4:	29 81       	ldd	r18, Y+1	; 0x01
    21b6:	fc 01       	movw	r30, r24
    21b8:	20 83       	st	Z, r18
    21ba:	8d e2       	ldi	r24, 0x2D	; 45
    21bc:	90 e0       	ldi	r25, 0x00	; 0
    21be:	fc 01       	movw	r30, r24
    21c0:	20 81       	ld	r18, Z
    21c2:	8d e2       	ldi	r24, 0x2D	; 45
    21c4:	90 e0       	ldi	r25, 0x00	; 0
    21c6:	20 64       	ori	r18, 0x40	; 64
    21c8:	fc 01       	movw	r30, r24
    21ca:	20 83       	st	Z, r18
    21cc:	00 00       	nop
    21ce:	8e e2       	ldi	r24, 0x2E	; 46
    21d0:	90 e0       	ldi	r25, 0x00	; 0
    21d2:	fc 01       	movw	r30, r24
    21d4:	80 81       	ld	r24, Z
    21d6:	88 1f       	adc	r24, r24
    21d8:	88 27       	eor	r24, r24
    21da:	88 1f       	adc	r24, r24
    21dc:	88 2f       	mov	r24, r24
    21de:	90 e0       	ldi	r25, 0x00	; 0
    21e0:	81 70       	andi	r24, 0x01	; 1
    21e2:	99 27       	eor	r25, r25
    21e4:	01 97       	sbiw	r24, 0x01	; 1
    21e6:	99 f7       	brne	.-26     	; 0x21ce <MCAL_SPI_Slave_DataBusyWait+0x42>
    21e8:	8f e2       	ldi	r24, 0x2F	; 47
    21ea:	90 e0       	ldi	r25, 0x00	; 0
    21ec:	fc 01       	movw	r30, r24
    21ee:	20 81       	ld	r18, Z
    21f0:	8a 81       	ldd	r24, Y+2	; 0x02
    21f2:	9b 81       	ldd	r25, Y+3	; 0x03
    21f4:	fc 01       	movw	r30, r24
    21f6:	20 83       	st	Z, r18
    21f8:	8d e2       	ldi	r24, 0x2D	; 45
    21fa:	90 e0       	ldi	r25, 0x00	; 0
    21fc:	fc 01       	movw	r30, r24
    21fe:	20 81       	ld	r18, Z
    2200:	8d e2       	ldi	r24, 0x2D	; 45
    2202:	90 e0       	ldi	r25, 0x00	; 0
    2204:	2f 7b       	andi	r18, 0xBF	; 191
    2206:	fc 01       	movw	r30, r24
    2208:	20 83       	st	Z, r18
    220a:	00 00       	nop
    220c:	0f 90       	pop	r0
    220e:	0f 90       	pop	r0
    2210:	0f 90       	pop	r0
    2212:	df 91       	pop	r29
    2214:	cf 91       	pop	r28
    2216:	08 95       	ret

00002218 <MCAL_SPI_Master_DataCallBack>:
    2218:	cf 93       	push	r28
    221a:	df 93       	push	r29
    221c:	00 d0       	rcall	.+0      	; 0x221e <MCAL_SPI_Master_DataCallBack+0x6>
    221e:	0f 92       	push	r0
    2220:	cd b7       	in	r28, 0x3d	; 61
    2222:	de b7       	in	r29, 0x3e	; 62
    2224:	89 83       	std	Y+1, r24	; 0x01
    2226:	7b 83       	std	Y+3, r23	; 0x03
    2228:	6a 83       	std	Y+2, r22	; 0x02
    222a:	80 91 68 00 	lds	r24, 0x0068	; 0x800068 <g_MasterMode>
    222e:	8a 30       	cpi	r24, 0x0A	; 10
    2230:	71 f5       	brne	.+92     	; 0x228e <MCAL_SPI_Master_DataCallBack+0x76>
    2232:	8f e5       	ldi	r24, 0x5F	; 95
    2234:	90 e0       	ldi	r25, 0x00	; 0
    2236:	fc 01       	movw	r30, r24
    2238:	20 81       	ld	r18, Z
    223a:	8f e5       	ldi	r24, 0x5F	; 95
    223c:	90 e0       	ldi	r25, 0x00	; 0
    223e:	20 68       	ori	r18, 0x80	; 128
    2240:	fc 01       	movw	r30, r24
    2242:	20 83       	st	Z, r18
    2244:	8a 81       	ldd	r24, Y+2	; 0x02
    2246:	9b 81       	ldd	r25, Y+3	; 0x03
    2248:	90 93 6c 00 	sts	0x006C, r25	; 0x80006c <Call_Back_Master+0x1>
    224c:	80 93 6b 00 	sts	0x006B, r24	; 0x80006b <Call_Back_Master>
    2250:	8d e2       	ldi	r24, 0x2D	; 45
    2252:	90 e0       	ldi	r25, 0x00	; 0
    2254:	fc 01       	movw	r30, r24
    2256:	20 81       	ld	r18, Z
    2258:	8d e2       	ldi	r24, 0x2D	; 45
    225a:	90 e0       	ldi	r25, 0x00	; 0
    225c:	20 68       	ori	r18, 0x80	; 128
    225e:	fc 01       	movw	r30, r24
    2260:	20 83       	st	Z, r18
    2262:	8f e2       	ldi	r24, 0x2F	; 47
    2264:	90 e0       	ldi	r25, 0x00	; 0
    2266:	29 81       	ldd	r18, Y+1	; 0x01
    2268:	fc 01       	movw	r30, r24
    226a:	20 83       	st	Z, r18
    226c:	40 e0       	ldi	r20, 0x00	; 0
    226e:	64 e0       	ldi	r22, 0x04	; 4
    2270:	81 e0       	ldi	r24, 0x01	; 1
    2272:	0e 94 46 01 	call	0x28c	; 0x28c <MCAL_DIO_u8SetPinValue>
    2276:	81 e0       	ldi	r24, 0x01	; 1
    2278:	80 93 68 00 	sts	0x0068, r24	; 0x800068 <g_MasterMode>
    227c:	8d e2       	ldi	r24, 0x2D	; 45
    227e:	90 e0       	ldi	r25, 0x00	; 0
    2280:	fc 01       	movw	r30, r24
    2282:	20 81       	ld	r18, Z
    2284:	8d e2       	ldi	r24, 0x2D	; 45
    2286:	90 e0       	ldi	r25, 0x00	; 0
    2288:	20 64       	ori	r18, 0x40	; 64
    228a:	fc 01       	movw	r30, r24
    228c:	20 83       	st	Z, r18
    228e:	00 00       	nop
    2290:	0f 90       	pop	r0
    2292:	0f 90       	pop	r0
    2294:	0f 90       	pop	r0
    2296:	df 91       	pop	r29
    2298:	cf 91       	pop	r28
    229a:	08 95       	ret

0000229c <MCAL_SPI_Slave_DataCallBack>:
    229c:	cf 93       	push	r28
    229e:	df 93       	push	r29
    22a0:	00 d0       	rcall	.+0      	; 0x22a2 <MCAL_SPI_Slave_DataCallBack+0x6>
    22a2:	0f 92       	push	r0
    22a4:	cd b7       	in	r28, 0x3d	; 61
    22a6:	de b7       	in	r29, 0x3e	; 62
    22a8:	89 83       	std	Y+1, r24	; 0x01
    22aa:	7b 83       	std	Y+3, r23	; 0x03
    22ac:	6a 83       	std	Y+2, r22	; 0x02
    22ae:	80 91 68 00 	lds	r24, 0x0068	; 0x800068 <g_MasterMode>
    22b2:	8a 30       	cpi	r24, 0x0A	; 10
    22b4:	41 f5       	brne	.+80     	; 0x2306 <MCAL_SPI_Slave_DataCallBack+0x6a>
    22b6:	8f e5       	ldi	r24, 0x5F	; 95
    22b8:	90 e0       	ldi	r25, 0x00	; 0
    22ba:	fc 01       	movw	r30, r24
    22bc:	20 81       	ld	r18, Z
    22be:	8f e5       	ldi	r24, 0x5F	; 95
    22c0:	90 e0       	ldi	r25, 0x00	; 0
    22c2:	20 68       	ori	r18, 0x80	; 128
    22c4:	fc 01       	movw	r30, r24
    22c6:	20 83       	st	Z, r18
    22c8:	8a 81       	ldd	r24, Y+2	; 0x02
    22ca:	9b 81       	ldd	r25, Y+3	; 0x03
    22cc:	90 93 6e 00 	sts	0x006E, r25	; 0x80006e <Call_Back_Slave+0x1>
    22d0:	80 93 6d 00 	sts	0x006D, r24	; 0x80006d <Call_Back_Slave>
    22d4:	8d e2       	ldi	r24, 0x2D	; 45
    22d6:	90 e0       	ldi	r25, 0x00	; 0
    22d8:	fc 01       	movw	r30, r24
    22da:	20 81       	ld	r18, Z
    22dc:	8d e2       	ldi	r24, 0x2D	; 45
    22de:	90 e0       	ldi	r25, 0x00	; 0
    22e0:	20 68       	ori	r18, 0x80	; 128
    22e2:	fc 01       	movw	r30, r24
    22e4:	20 83       	st	Z, r18
    22e6:	10 92 68 00 	sts	0x0068, r1	; 0x800068 <g_MasterMode>
    22ea:	8f e2       	ldi	r24, 0x2F	; 47
    22ec:	90 e0       	ldi	r25, 0x00	; 0
    22ee:	29 81       	ldd	r18, Y+1	; 0x01
    22f0:	fc 01       	movw	r30, r24
    22f2:	20 83       	st	Z, r18
    22f4:	8d e2       	ldi	r24, 0x2D	; 45
    22f6:	90 e0       	ldi	r25, 0x00	; 0
    22f8:	fc 01       	movw	r30, r24
    22fa:	20 81       	ld	r18, Z
    22fc:	8d e2       	ldi	r24, 0x2D	; 45
    22fe:	90 e0       	ldi	r25, 0x00	; 0
    2300:	20 64       	ori	r18, 0x40	; 64
    2302:	fc 01       	movw	r30, r24
    2304:	20 83       	st	Z, r18
    2306:	00 00       	nop
    2308:	0f 90       	pop	r0
    230a:	0f 90       	pop	r0
    230c:	0f 90       	pop	r0
    230e:	df 91       	pop	r29
    2310:	cf 91       	pop	r28
    2312:	08 95       	ret

00002314 <MCAL_SPI_MasterString>:
    2314:	cf 93       	push	r28
    2316:	df 93       	push	r29
    2318:	cd b7       	in	r28, 0x3d	; 61
    231a:	de b7       	in	r29, 0x3e	; 62
    231c:	a8 97       	sbiw	r28, 0x28	; 40
    231e:	0f b6       	in	r0, 0x3f	; 63
    2320:	f8 94       	cli
    2322:	de bf       	out	0x3e, r29	; 62
    2324:	0f be       	out	0x3f, r0	; 63
    2326:	cd bf       	out	0x3d, r28	; 61
    2328:	9a 8b       	std	Y+18, r25	; 0x12
    232a:	89 8b       	std	Y+17, r24	; 0x11
    232c:	7c 8b       	std	Y+20, r23	; 0x14
    232e:	6b 8b       	std	Y+19, r22	; 0x13
    2330:	1a 82       	std	Y+2, r1	; 0x02
    2332:	19 82       	std	Y+1, r1	; 0x01
    2334:	a1 c0       	rjmp	.+322    	; 0x2478 <MCAL_SPI_MasterString+0x164>
    2336:	29 89       	ldd	r18, Y+17	; 0x11
    2338:	3a 89       	ldd	r19, Y+18	; 0x12
    233a:	89 81       	ldd	r24, Y+1	; 0x01
    233c:	9a 81       	ldd	r25, Y+2	; 0x02
    233e:	82 0f       	add	r24, r18
    2340:	93 1f       	adc	r25, r19
    2342:	dc 01       	movw	r26, r24
    2344:	2c 91       	ld	r18, X
    2346:	8b 89       	ldd	r24, Y+19	; 0x13
    2348:	9c 89       	ldd	r25, Y+20	; 0x14
    234a:	bc 01       	movw	r22, r24
    234c:	82 2f       	mov	r24, r18
    234e:	0e 94 0c 11 	call	0x2218	; 0x2218 <MCAL_SPI_Master_DataCallBack>
    2352:	89 81       	ldd	r24, Y+1	; 0x01
    2354:	9a 81       	ldd	r25, Y+2	; 0x02
    2356:	01 96       	adiw	r24, 0x01	; 1
    2358:	9a 83       	std	Y+2, r25	; 0x02
    235a:	89 83       	std	Y+1, r24	; 0x01
    235c:	80 e0       	ldi	r24, 0x00	; 0
    235e:	90 e0       	ldi	r25, 0x00	; 0
    2360:	a0 e8       	ldi	r26, 0x80	; 128
    2362:	bf e3       	ldi	r27, 0x3F	; 63
    2364:	8b 83       	std	Y+3, r24	; 0x03
    2366:	9c 83       	std	Y+4, r25	; 0x04
    2368:	ad 83       	std	Y+5, r26	; 0x05
    236a:	be 83       	std	Y+6, r27	; 0x06
    236c:	20 e0       	ldi	r18, 0x00	; 0
    236e:	30 e0       	ldi	r19, 0x00	; 0
    2370:	4a ef       	ldi	r20, 0xFA	; 250
    2372:	54 e4       	ldi	r21, 0x44	; 68
    2374:	6b 81       	ldd	r22, Y+3	; 0x03
    2376:	7c 81       	ldd	r23, Y+4	; 0x04
    2378:	8d 81       	ldd	r24, Y+5	; 0x05
    237a:	9e 81       	ldd	r25, Y+6	; 0x06
    237c:	0e 94 50 17 	call	0x2ea0	; 0x2ea0 <__mulsf3>
    2380:	69 8f       	std	Y+25, r22	; 0x19
    2382:	7a 8f       	std	Y+26, r23	; 0x1a
    2384:	8b 8f       	std	Y+27, r24	; 0x1b
    2386:	9c 8f       	std	Y+28, r25	; 0x1c
    2388:	89 8d       	ldd	r24, Y+25	; 0x19
    238a:	9a 8d       	ldd	r25, Y+26	; 0x1a
    238c:	ab 8d       	ldd	r26, Y+27	; 0x1b
    238e:	bc 8d       	ldd	r27, Y+28	; 0x1c
    2390:	8f 83       	std	Y+7, r24	; 0x07
    2392:	98 87       	std	Y+8, r25	; 0x08
    2394:	a9 87       	std	Y+9, r26	; 0x09
    2396:	ba 87       	std	Y+10, r27	; 0x0a
    2398:	20 e0       	ldi	r18, 0x00	; 0
    239a:	30 e0       	ldi	r19, 0x00	; 0
    239c:	40 e8       	ldi	r20, 0x80	; 128
    239e:	5f e3       	ldi	r21, 0x3F	; 63
    23a0:	6f 81       	ldd	r22, Y+7	; 0x07
    23a2:	78 85       	ldd	r23, Y+8	; 0x08
    23a4:	89 85       	ldd	r24, Y+9	; 0x09
    23a6:	9a 85       	ldd	r25, Y+10	; 0x0a
    23a8:	0e 94 ca 16 	call	0x2d94	; 0x2d94 <__cmpsf2>
    23ac:	88 23       	and	r24, r24
    23ae:	2c f4       	brge	.+10     	; 0x23ba <MCAL_SPI_MasterString+0xa6>
    23b0:	81 e0       	ldi	r24, 0x01	; 1
    23b2:	90 e0       	ldi	r25, 0x00	; 0
    23b4:	9c 87       	std	Y+12, r25	; 0x0c
    23b6:	8b 87       	std	Y+11, r24	; 0x0b
    23b8:	54 c0       	rjmp	.+168    	; 0x2462 <MCAL_SPI_MasterString+0x14e>
    23ba:	20 e0       	ldi	r18, 0x00	; 0
    23bc:	3f ef       	ldi	r19, 0xFF	; 255
    23be:	4f e7       	ldi	r20, 0x7F	; 127
    23c0:	57 e4       	ldi	r21, 0x47	; 71
    23c2:	6f 81       	ldd	r22, Y+7	; 0x07
    23c4:	78 85       	ldd	r23, Y+8	; 0x08
    23c6:	89 85       	ldd	r24, Y+9	; 0x09
    23c8:	9a 85       	ldd	r25, Y+10	; 0x0a
    23ca:	0e 94 4b 17 	call	0x2e96	; 0x2e96 <__gesf2>
    23ce:	18 16       	cp	r1, r24
    23d0:	d4 f5       	brge	.+116    	; 0x2446 <MCAL_SPI_MasterString+0x132>
    23d2:	20 e0       	ldi	r18, 0x00	; 0
    23d4:	30 e0       	ldi	r19, 0x00	; 0
    23d6:	40 e2       	ldi	r20, 0x20	; 32
    23d8:	51 e4       	ldi	r21, 0x41	; 65
    23da:	6b 81       	ldd	r22, Y+3	; 0x03
    23dc:	7c 81       	ldd	r23, Y+4	; 0x04
    23de:	8d 81       	ldd	r24, Y+5	; 0x05
    23e0:	9e 81       	ldd	r25, Y+6	; 0x06
    23e2:	0e 94 50 17 	call	0x2ea0	; 0x2ea0 <__mulsf3>
    23e6:	6d 8f       	std	Y+29, r22	; 0x1d
    23e8:	7e 8f       	std	Y+30, r23	; 0x1e
    23ea:	8f 8f       	std	Y+31, r24	; 0x1f
    23ec:	98 a3       	std	Y+32, r25	; 0x20
    23ee:	8d 8d       	ldd	r24, Y+29	; 0x1d
    23f0:	9e 8d       	ldd	r25, Y+30	; 0x1e
    23f2:	af 8d       	ldd	r26, Y+31	; 0x1f
    23f4:	b8 a1       	ldd	r27, Y+32	; 0x20
    23f6:	8d 8b       	std	Y+21, r24	; 0x15
    23f8:	9e 8b       	std	Y+22, r25	; 0x16
    23fa:	af 8b       	std	Y+23, r26	; 0x17
    23fc:	b8 8f       	std	Y+24, r27	; 0x18
    23fe:	6d 89       	ldd	r22, Y+21	; 0x15
    2400:	7e 89       	ldd	r23, Y+22	; 0x16
    2402:	8f 89       	ldd	r24, Y+23	; 0x17
    2404:	98 8d       	ldd	r25, Y+24	; 0x18
    2406:	0e 94 cf 16 	call	0x2d9e	; 0x2d9e <__fixunssfsi>
    240a:	69 a3       	std	Y+33, r22	; 0x21
    240c:	7a a3       	std	Y+34, r23	; 0x22
    240e:	8b a3       	std	Y+35, r24	; 0x23
    2410:	9c a3       	std	Y+36, r25	; 0x24
    2412:	a9 a1       	ldd	r26, Y+33	; 0x21
    2414:	ba a1       	ldd	r27, Y+34	; 0x22
    2416:	bc 87       	std	Y+12, r27	; 0x0c
    2418:	ab 87       	std	Y+11, r26	; 0x0b
    241a:	10 c0       	rjmp	.+32     	; 0x243c <MCAL_SPI_MasterString+0x128>
    241c:	88 ec       	ldi	r24, 0xC8	; 200
    241e:	90 e0       	ldi	r25, 0x00	; 0
    2420:	9e 87       	std	Y+14, r25	; 0x0e
    2422:	8d 87       	std	Y+13, r24	; 0x0d
    2424:	8d 85       	ldd	r24, Y+13	; 0x0d
    2426:	9e 85       	ldd	r25, Y+14	; 0x0e
    2428:	01 97       	sbiw	r24, 0x01	; 1
    242a:	f1 f7       	brne	.-4      	; 0x2428 <MCAL_SPI_MasterString+0x114>
    242c:	9e 87       	std	Y+14, r25	; 0x0e
    242e:	8d 87       	std	Y+13, r24	; 0x0d
    2430:	00 00       	nop
    2432:	8b 85       	ldd	r24, Y+11	; 0x0b
    2434:	9c 85       	ldd	r25, Y+12	; 0x0c
    2436:	01 97       	sbiw	r24, 0x01	; 1
    2438:	9c 87       	std	Y+12, r25	; 0x0c
    243a:	8b 87       	std	Y+11, r24	; 0x0b
    243c:	8b 85       	ldd	r24, Y+11	; 0x0b
    243e:	9c 85       	ldd	r25, Y+12	; 0x0c
    2440:	89 2b       	or	r24, r25
    2442:	61 f7       	brne	.-40     	; 0x241c <MCAL_SPI_MasterString+0x108>
    2444:	19 c0       	rjmp	.+50     	; 0x2478 <MCAL_SPI_MasterString+0x164>
    2446:	6f 81       	ldd	r22, Y+7	; 0x07
    2448:	78 85       	ldd	r23, Y+8	; 0x08
    244a:	89 85       	ldd	r24, Y+9	; 0x09
    244c:	9a 85       	ldd	r25, Y+10	; 0x0a
    244e:	0e 94 cf 16 	call	0x2d9e	; 0x2d9e <__fixunssfsi>
    2452:	6d a3       	std	Y+37, r22	; 0x25
    2454:	7e a3       	std	Y+38, r23	; 0x26
    2456:	8f a3       	std	Y+39, r24	; 0x27
    2458:	98 a7       	std	Y+40, r25	; 0x28
    245a:	ed a1       	ldd	r30, Y+37	; 0x25
    245c:	fe a1       	ldd	r31, Y+38	; 0x26
    245e:	fc 87       	std	Y+12, r31	; 0x0c
    2460:	eb 87       	std	Y+11, r30	; 0x0b
    2462:	8b 85       	ldd	r24, Y+11	; 0x0b
    2464:	9c 85       	ldd	r25, Y+12	; 0x0c
    2466:	98 8b       	std	Y+16, r25	; 0x10
    2468:	8f 87       	std	Y+15, r24	; 0x0f
    246a:	8f 85       	ldd	r24, Y+15	; 0x0f
    246c:	98 89       	ldd	r25, Y+16	; 0x10
    246e:	01 97       	sbiw	r24, 0x01	; 1
    2470:	f1 f7       	brne	.-4      	; 0x246e <MCAL_SPI_MasterString+0x15a>
    2472:	98 8b       	std	Y+16, r25	; 0x10
    2474:	8f 87       	std	Y+15, r24	; 0x0f
    2476:	00 00       	nop
    2478:	29 89       	ldd	r18, Y+17	; 0x11
    247a:	3a 89       	ldd	r19, Y+18	; 0x12
    247c:	89 81       	ldd	r24, Y+1	; 0x01
    247e:	9a 81       	ldd	r25, Y+2	; 0x02
    2480:	82 0f       	add	r24, r18
    2482:	93 1f       	adc	r25, r19
    2484:	dc 01       	movw	r26, r24
    2486:	8c 91       	ld	r24, X
    2488:	88 23       	and	r24, r24
    248a:	09 f0       	breq	.+2      	; 0x248e <MCAL_SPI_MasterString+0x17a>
    248c:	54 cf       	rjmp	.-344    	; 0x2336 <MCAL_SPI_MasterString+0x22>
    248e:	00 00       	nop
    2490:	00 00       	nop
    2492:	a8 96       	adiw	r28, 0x28	; 40
    2494:	0f b6       	in	r0, 0x3f	; 63
    2496:	f8 94       	cli
    2498:	de bf       	out	0x3e, r29	; 62
    249a:	0f be       	out	0x3f, r0	; 63
    249c:	cd bf       	out	0x3d, r28	; 61
    249e:	df 91       	pop	r29
    24a0:	cf 91       	pop	r28
    24a2:	08 95       	ret

000024a4 <MCAL_SPI_SlaveString>:
    24a4:	cf 93       	push	r28
    24a6:	df 93       	push	r29
    24a8:	00 d0       	rcall	.+0      	; 0x24aa <MCAL_SPI_SlaveString+0x6>
    24aa:	00 d0       	rcall	.+0      	; 0x24ac <MCAL_SPI_SlaveString+0x8>
    24ac:	00 d0       	rcall	.+0      	; 0x24ae <MCAL_SPI_SlaveString+0xa>
    24ae:	cd b7       	in	r28, 0x3d	; 61
    24b0:	de b7       	in	r29, 0x3e	; 62
    24b2:	9c 83       	std	Y+4, r25	; 0x04
    24b4:	8b 83       	std	Y+3, r24	; 0x03
    24b6:	7e 83       	std	Y+6, r23	; 0x06
    24b8:	6d 83       	std	Y+5, r22	; 0x05
    24ba:	1a 82       	std	Y+2, r1	; 0x02
    24bc:	19 82       	std	Y+1, r1	; 0x01
    24be:	13 c0       	rjmp	.+38     	; 0x24e6 <MCAL_SPI_SlaveString+0x42>
    24c0:	2b 81       	ldd	r18, Y+3	; 0x03
    24c2:	3c 81       	ldd	r19, Y+4	; 0x04
    24c4:	89 81       	ldd	r24, Y+1	; 0x01
    24c6:	9a 81       	ldd	r25, Y+2	; 0x02
    24c8:	82 0f       	add	r24, r18
    24ca:	93 1f       	adc	r25, r19
    24cc:	fc 01       	movw	r30, r24
    24ce:	20 81       	ld	r18, Z
    24d0:	8d 81       	ldd	r24, Y+5	; 0x05
    24d2:	9e 81       	ldd	r25, Y+6	; 0x06
    24d4:	bc 01       	movw	r22, r24
    24d6:	82 2f       	mov	r24, r18
    24d8:	0e 94 4e 11 	call	0x229c	; 0x229c <MCAL_SPI_Slave_DataCallBack>
    24dc:	89 81       	ldd	r24, Y+1	; 0x01
    24de:	9a 81       	ldd	r25, Y+2	; 0x02
    24e0:	01 96       	adiw	r24, 0x01	; 1
    24e2:	9a 83       	std	Y+2, r25	; 0x02
    24e4:	89 83       	std	Y+1, r24	; 0x01
    24e6:	2b 81       	ldd	r18, Y+3	; 0x03
    24e8:	3c 81       	ldd	r19, Y+4	; 0x04
    24ea:	89 81       	ldd	r24, Y+1	; 0x01
    24ec:	9a 81       	ldd	r25, Y+2	; 0x02
    24ee:	82 0f       	add	r24, r18
    24f0:	93 1f       	adc	r25, r19
    24f2:	fc 01       	movw	r30, r24
    24f4:	80 81       	ld	r24, Z
    24f6:	88 23       	and	r24, r24
    24f8:	19 f7       	brne	.-58     	; 0x24c0 <MCAL_SPI_SlaveString+0x1c>
    24fa:	00 00       	nop
    24fc:	00 00       	nop
    24fe:	26 96       	adiw	r28, 0x06	; 6
    2500:	0f b6       	in	r0, 0x3f	; 63
    2502:	f8 94       	cli
    2504:	de bf       	out	0x3e, r29	; 62
    2506:	0f be       	out	0x3f, r0	; 63
    2508:	cd bf       	out	0x3d, r28	; 61
    250a:	df 91       	pop	r29
    250c:	cf 91       	pop	r28
    250e:	08 95       	ret

00002510 <__vector_12>:
    2510:	1f 92       	push	r1
    2512:	0f 92       	push	r0
    2514:	0f b6       	in	r0, 0x3f	; 63
    2516:	0f 92       	push	r0
    2518:	11 24       	eor	r1, r1
    251a:	2f 93       	push	r18
    251c:	3f 93       	push	r19
    251e:	4f 93       	push	r20
    2520:	5f 93       	push	r21
    2522:	6f 93       	push	r22
    2524:	7f 93       	push	r23
    2526:	8f 93       	push	r24
    2528:	9f 93       	push	r25
    252a:	af 93       	push	r26
    252c:	bf 93       	push	r27
    252e:	ef 93       	push	r30
    2530:	ff 93       	push	r31
    2532:	cf 93       	push	r28
    2534:	df 93       	push	r29
    2536:	cd b7       	in	r28, 0x3d	; 61
    2538:	de b7       	in	r29, 0x3e	; 62
    253a:	80 91 68 00 	lds	r24, 0x0068	; 0x800068 <g_MasterMode>
    253e:	81 30       	cpi	r24, 0x01	; 1
    2540:	49 f5       	brne	.+82     	; 0x2594 <__vector_12+0x84>
    2542:	80 91 6b 00 	lds	r24, 0x006B	; 0x80006b <Call_Back_Master>
    2546:	90 91 6c 00 	lds	r25, 0x006C	; 0x80006c <Call_Back_Master+0x1>
    254a:	89 2b       	or	r24, r25
    254c:	09 f4       	brne	.+2      	; 0x2550 <__vector_12+0x40>
    254e:	42 c0       	rjmp	.+132    	; 0x25d4 <__vector_12+0xc4>
    2550:	20 91 6b 00 	lds	r18, 0x006B	; 0x80006b <Call_Back_Master>
    2554:	30 91 6c 00 	lds	r19, 0x006C	; 0x80006c <Call_Back_Master+0x1>
    2558:	8f e2       	ldi	r24, 0x2F	; 47
    255a:	90 e0       	ldi	r25, 0x00	; 0
    255c:	fc 01       	movw	r30, r24
    255e:	80 81       	ld	r24, Z
    2560:	f9 01       	movw	r30, r18
    2562:	09 95       	icall
    2564:	8d e2       	ldi	r24, 0x2D	; 45
    2566:	90 e0       	ldi	r25, 0x00	; 0
    2568:	fc 01       	movw	r30, r24
    256a:	20 81       	ld	r18, Z
    256c:	8d e2       	ldi	r24, 0x2D	; 45
    256e:	90 e0       	ldi	r25, 0x00	; 0
    2570:	2f 7b       	andi	r18, 0xBF	; 191
    2572:	fc 01       	movw	r30, r24
    2574:	20 83       	st	Z, r18
    2576:	8d e2       	ldi	r24, 0x2D	; 45
    2578:	90 e0       	ldi	r25, 0x00	; 0
    257a:	fc 01       	movw	r30, r24
    257c:	20 81       	ld	r18, Z
    257e:	8d e2       	ldi	r24, 0x2D	; 45
    2580:	90 e0       	ldi	r25, 0x00	; 0
    2582:	2f 77       	andi	r18, 0x7F	; 127
    2584:	fc 01       	movw	r30, r24
    2586:	20 83       	st	Z, r18
    2588:	41 e0       	ldi	r20, 0x01	; 1
    258a:	64 e0       	ldi	r22, 0x04	; 4
    258c:	81 e0       	ldi	r24, 0x01	; 1
    258e:	0e 94 46 01 	call	0x28c	; 0x28c <MCAL_DIO_u8SetPinValue>
    2592:	20 c0       	rjmp	.+64     	; 0x25d4 <__vector_12+0xc4>
    2594:	80 91 68 00 	lds	r24, 0x0068	; 0x800068 <g_MasterMode>
    2598:	88 23       	and	r24, r24
    259a:	e1 f4       	brne	.+56     	; 0x25d4 <__vector_12+0xc4>
    259c:	8d e2       	ldi	r24, 0x2D	; 45
    259e:	90 e0       	ldi	r25, 0x00	; 0
    25a0:	fc 01       	movw	r30, r24
    25a2:	20 81       	ld	r18, Z
    25a4:	8d e2       	ldi	r24, 0x2D	; 45
    25a6:	90 e0       	ldi	r25, 0x00	; 0
    25a8:	2f 77       	andi	r18, 0x7F	; 127
    25aa:	fc 01       	movw	r30, r24
    25ac:	20 83       	st	Z, r18
    25ae:	20 91 6d 00 	lds	r18, 0x006D	; 0x80006d <Call_Back_Slave>
    25b2:	30 91 6e 00 	lds	r19, 0x006E	; 0x80006e <Call_Back_Slave+0x1>
    25b6:	8f e2       	ldi	r24, 0x2F	; 47
    25b8:	90 e0       	ldi	r25, 0x00	; 0
    25ba:	fc 01       	movw	r30, r24
    25bc:	80 81       	ld	r24, Z
    25be:	f9 01       	movw	r30, r18
    25c0:	09 95       	icall
    25c2:	8d e2       	ldi	r24, 0x2D	; 45
    25c4:	90 e0       	ldi	r25, 0x00	; 0
    25c6:	fc 01       	movw	r30, r24
    25c8:	20 81       	ld	r18, Z
    25ca:	8d e2       	ldi	r24, 0x2D	; 45
    25cc:	90 e0       	ldi	r25, 0x00	; 0
    25ce:	2f 7b       	andi	r18, 0xBF	; 191
    25d0:	fc 01       	movw	r30, r24
    25d2:	20 83       	st	Z, r18
    25d4:	8a e0       	ldi	r24, 0x0A	; 10
    25d6:	80 93 68 00 	sts	0x0068, r24	; 0x800068 <g_MasterMode>
    25da:	00 00       	nop
    25dc:	df 91       	pop	r29
    25de:	cf 91       	pop	r28
    25e0:	ff 91       	pop	r31
    25e2:	ef 91       	pop	r30
    25e4:	bf 91       	pop	r27
    25e6:	af 91       	pop	r26
    25e8:	9f 91       	pop	r25
    25ea:	8f 91       	pop	r24
    25ec:	7f 91       	pop	r23
    25ee:	6f 91       	pop	r22
    25f0:	5f 91       	pop	r21
    25f2:	4f 91       	pop	r20
    25f4:	3f 91       	pop	r19
    25f6:	2f 91       	pop	r18
    25f8:	0f 90       	pop	r0
    25fa:	0f be       	out	0x3f, r0	; 63
    25fc:	0f 90       	pop	r0
    25fe:	1f 90       	pop	r1
    2600:	18 95       	reti

00002602 <MCAL_UART_init>:
    2602:	0f 93       	push	r16
    2604:	1f 93       	push	r17
    2606:	cf 93       	push	r28
    2608:	df 93       	push	r29
    260a:	cd b7       	in	r28, 0x3d	; 61
    260c:	de b7       	in	r29, 0x3e	; 62
    260e:	29 97       	sbiw	r28, 0x09	; 9
    2610:	0f b6       	in	r0, 0x3f	; 63
    2612:	f8 94       	cli
    2614:	de bf       	out	0x3e, r29	; 62
    2616:	0f be       	out	0x3f, r0	; 63
    2618:	cd bf       	out	0x3d, r28	; 61
    261a:	9d 83       	std	Y+5, r25	; 0x05
    261c:	8c 83       	std	Y+4, r24	; 0x04
    261e:	81 e0       	ldi	r24, 0x01	; 1
    2620:	89 83       	std	Y+1, r24	; 0x01
    2622:	80 e4       	ldi	r24, 0x40	; 64
    2624:	90 e0       	ldi	r25, 0x00	; 0
    2626:	dc 01       	movw	r26, r24
    2628:	2c 91       	ld	r18, X
    262a:	80 e4       	ldi	r24, 0x40	; 64
    262c:	90 e0       	ldi	r25, 0x00	; 0
    262e:	20 68       	ori	r18, 0x80	; 128
    2630:	fc 01       	movw	r30, r24
    2632:	20 83       	st	Z, r18
    2634:	80 e4       	ldi	r24, 0x40	; 64
    2636:	90 e0       	ldi	r25, 0x00	; 0
    2638:	dc 01       	movw	r26, r24
    263a:	2c 91       	ld	r18, X
    263c:	80 e4       	ldi	r24, 0x40	; 64
    263e:	90 e0       	ldi	r25, 0x00	; 0
    2640:	2f 7d       	andi	r18, 0xDF	; 223
    2642:	fc 01       	movw	r30, r24
    2644:	20 83       	st	Z, r18
    2646:	80 e4       	ldi	r24, 0x40	; 64
    2648:	90 e0       	ldi	r25, 0x00	; 0
    264a:	dc 01       	movw	r26, r24
    264c:	2c 91       	ld	r18, X
    264e:	80 e4       	ldi	r24, 0x40	; 64
    2650:	90 e0       	ldi	r25, 0x00	; 0
    2652:	2f 7e       	andi	r18, 0xEF	; 239
    2654:	fc 01       	movw	r30, r24
    2656:	20 83       	st	Z, r18
    2658:	80 e4       	ldi	r24, 0x40	; 64
    265a:	90 e0       	ldi	r25, 0x00	; 0
    265c:	dc 01       	movw	r26, r24
    265e:	2c 91       	ld	r18, X
    2660:	80 e4       	ldi	r24, 0x40	; 64
    2662:	90 e0       	ldi	r25, 0x00	; 0
    2664:	27 7f       	andi	r18, 0xF7	; 247
    2666:	fc 01       	movw	r30, r24
    2668:	20 83       	st	Z, r18
    266a:	80 e4       	ldi	r24, 0x40	; 64
    266c:	90 e0       	ldi	r25, 0x00	; 0
    266e:	dc 01       	movw	r26, r24
    2670:	2c 91       	ld	r18, X
    2672:	80 e4       	ldi	r24, 0x40	; 64
    2674:	90 e0       	ldi	r25, 0x00	; 0
    2676:	2f 7b       	andi	r18, 0xBF	; 191
    2678:	fc 01       	movw	r30, r24
    267a:	20 83       	st	Z, r18
    267c:	10 92 70 00 	sts	0x0070, r1	; 0x800070 <g_CharacterSize>
    2680:	8c 81       	ldd	r24, Y+4	; 0x04
    2682:	9d 81       	ldd	r25, Y+5	; 0x05
    2684:	dc 01       	movw	r26, r24
    2686:	14 96       	adiw	r26, 0x04	; 4
    2688:	8c 91       	ld	r24, X
    268a:	88 23       	and	r24, r24
    268c:	e1 f4       	brne	.+56     	; 0x26c6 <MCAL_UART_init+0xc4>
    268e:	80 e4       	ldi	r24, 0x40	; 64
    2690:	90 e0       	ldi	r25, 0x00	; 0
    2692:	fc 01       	movw	r30, r24
    2694:	20 81       	ld	r18, Z
    2696:	80 e4       	ldi	r24, 0x40	; 64
    2698:	90 e0       	ldi	r25, 0x00	; 0
    269a:	2d 7f       	andi	r18, 0xFD	; 253
    269c:	dc 01       	movw	r26, r24
    269e:	2c 93       	st	X, r18
    26a0:	80 e4       	ldi	r24, 0x40	; 64
    26a2:	90 e0       	ldi	r25, 0x00	; 0
    26a4:	fc 01       	movw	r30, r24
    26a6:	20 81       	ld	r18, Z
    26a8:	80 e4       	ldi	r24, 0x40	; 64
    26aa:	90 e0       	ldi	r25, 0x00	; 0
    26ac:	2b 7f       	andi	r18, 0xFB	; 251
    26ae:	dc 01       	movw	r26, r24
    26b0:	2c 93       	st	X, r18
    26b2:	8a e2       	ldi	r24, 0x2A	; 42
    26b4:	90 e0       	ldi	r25, 0x00	; 0
    26b6:	fc 01       	movw	r30, r24
    26b8:	20 81       	ld	r18, Z
    26ba:	8a e2       	ldi	r24, 0x2A	; 42
    26bc:	90 e0       	ldi	r25, 0x00	; 0
    26be:	2b 7f       	andi	r18, 0xFB	; 251
    26c0:	dc 01       	movw	r26, r24
    26c2:	2c 93       	st	X, r18
    26c4:	8e c0       	rjmp	.+284    	; 0x27e2 <MCAL_UART_init+0x1e0>
    26c6:	8c 81       	ldd	r24, Y+4	; 0x04
    26c8:	9d 81       	ldd	r25, Y+5	; 0x05
    26ca:	fc 01       	movw	r30, r24
    26cc:	84 81       	ldd	r24, Z+4	; 0x04
    26ce:	81 30       	cpi	r24, 0x01	; 1
    26d0:	e1 f4       	brne	.+56     	; 0x270a <MCAL_UART_init+0x108>
    26d2:	80 e4       	ldi	r24, 0x40	; 64
    26d4:	90 e0       	ldi	r25, 0x00	; 0
    26d6:	dc 01       	movw	r26, r24
    26d8:	2c 91       	ld	r18, X
    26da:	80 e4       	ldi	r24, 0x40	; 64
    26dc:	90 e0       	ldi	r25, 0x00	; 0
    26de:	22 60       	ori	r18, 0x02	; 2
    26e0:	fc 01       	movw	r30, r24
    26e2:	20 83       	st	Z, r18
    26e4:	80 e4       	ldi	r24, 0x40	; 64
    26e6:	90 e0       	ldi	r25, 0x00	; 0
    26e8:	dc 01       	movw	r26, r24
    26ea:	2c 91       	ld	r18, X
    26ec:	80 e4       	ldi	r24, 0x40	; 64
    26ee:	90 e0       	ldi	r25, 0x00	; 0
    26f0:	2b 7f       	andi	r18, 0xFB	; 251
    26f2:	fc 01       	movw	r30, r24
    26f4:	20 83       	st	Z, r18
    26f6:	8a e2       	ldi	r24, 0x2A	; 42
    26f8:	90 e0       	ldi	r25, 0x00	; 0
    26fa:	dc 01       	movw	r26, r24
    26fc:	2c 91       	ld	r18, X
    26fe:	8a e2       	ldi	r24, 0x2A	; 42
    2700:	90 e0       	ldi	r25, 0x00	; 0
    2702:	2b 7f       	andi	r18, 0xFB	; 251
    2704:	fc 01       	movw	r30, r24
    2706:	20 83       	st	Z, r18
    2708:	6c c0       	rjmp	.+216    	; 0x27e2 <MCAL_UART_init+0x1e0>
    270a:	8c 81       	ldd	r24, Y+4	; 0x04
    270c:	9d 81       	ldd	r25, Y+5	; 0x05
    270e:	dc 01       	movw	r26, r24
    2710:	14 96       	adiw	r26, 0x04	; 4
    2712:	8c 91       	ld	r24, X
    2714:	82 30       	cpi	r24, 0x02	; 2
    2716:	e1 f4       	brne	.+56     	; 0x2750 <MCAL_UART_init+0x14e>
    2718:	80 e4       	ldi	r24, 0x40	; 64
    271a:	90 e0       	ldi	r25, 0x00	; 0
    271c:	fc 01       	movw	r30, r24
    271e:	20 81       	ld	r18, Z
    2720:	80 e4       	ldi	r24, 0x40	; 64
    2722:	90 e0       	ldi	r25, 0x00	; 0
    2724:	2d 7f       	andi	r18, 0xFD	; 253
    2726:	dc 01       	movw	r26, r24
    2728:	2c 93       	st	X, r18
    272a:	80 e4       	ldi	r24, 0x40	; 64
    272c:	90 e0       	ldi	r25, 0x00	; 0
    272e:	fc 01       	movw	r30, r24
    2730:	20 81       	ld	r18, Z
    2732:	80 e4       	ldi	r24, 0x40	; 64
    2734:	90 e0       	ldi	r25, 0x00	; 0
    2736:	24 60       	ori	r18, 0x04	; 4
    2738:	dc 01       	movw	r26, r24
    273a:	2c 93       	st	X, r18
    273c:	8a e2       	ldi	r24, 0x2A	; 42
    273e:	90 e0       	ldi	r25, 0x00	; 0
    2740:	fc 01       	movw	r30, r24
    2742:	20 81       	ld	r18, Z
    2744:	8a e2       	ldi	r24, 0x2A	; 42
    2746:	90 e0       	ldi	r25, 0x00	; 0
    2748:	2b 7f       	andi	r18, 0xFB	; 251
    274a:	dc 01       	movw	r26, r24
    274c:	2c 93       	st	X, r18
    274e:	49 c0       	rjmp	.+146    	; 0x27e2 <MCAL_UART_init+0x1e0>
    2750:	8c 81       	ldd	r24, Y+4	; 0x04
    2752:	9d 81       	ldd	r25, Y+5	; 0x05
    2754:	fc 01       	movw	r30, r24
    2756:	84 81       	ldd	r24, Z+4	; 0x04
    2758:	83 30       	cpi	r24, 0x03	; 3
    275a:	e1 f4       	brne	.+56     	; 0x2794 <MCAL_UART_init+0x192>
    275c:	80 e4       	ldi	r24, 0x40	; 64
    275e:	90 e0       	ldi	r25, 0x00	; 0
    2760:	dc 01       	movw	r26, r24
    2762:	2c 91       	ld	r18, X
    2764:	80 e4       	ldi	r24, 0x40	; 64
    2766:	90 e0       	ldi	r25, 0x00	; 0
    2768:	22 60       	ori	r18, 0x02	; 2
    276a:	fc 01       	movw	r30, r24
    276c:	20 83       	st	Z, r18
    276e:	80 e4       	ldi	r24, 0x40	; 64
    2770:	90 e0       	ldi	r25, 0x00	; 0
    2772:	dc 01       	movw	r26, r24
    2774:	2c 91       	ld	r18, X
    2776:	80 e4       	ldi	r24, 0x40	; 64
    2778:	90 e0       	ldi	r25, 0x00	; 0
    277a:	24 60       	ori	r18, 0x04	; 4
    277c:	fc 01       	movw	r30, r24
    277e:	20 83       	st	Z, r18
    2780:	8a e2       	ldi	r24, 0x2A	; 42
    2782:	90 e0       	ldi	r25, 0x00	; 0
    2784:	dc 01       	movw	r26, r24
    2786:	2c 91       	ld	r18, X
    2788:	8a e2       	ldi	r24, 0x2A	; 42
    278a:	90 e0       	ldi	r25, 0x00	; 0
    278c:	2b 7f       	andi	r18, 0xFB	; 251
    278e:	fc 01       	movw	r30, r24
    2790:	20 83       	st	Z, r18
    2792:	27 c0       	rjmp	.+78     	; 0x27e2 <MCAL_UART_init+0x1e0>
    2794:	8c 81       	ldd	r24, Y+4	; 0x04
    2796:	9d 81       	ldd	r25, Y+5	; 0x05
    2798:	dc 01       	movw	r26, r24
    279a:	14 96       	adiw	r26, 0x04	; 4
    279c:	8c 91       	ld	r24, X
    279e:	87 30       	cpi	r24, 0x07	; 7
    27a0:	f9 f4       	brne	.+62     	; 0x27e0 <MCAL_UART_init+0x1de>
    27a2:	80 e4       	ldi	r24, 0x40	; 64
    27a4:	90 e0       	ldi	r25, 0x00	; 0
    27a6:	fc 01       	movw	r30, r24
    27a8:	20 81       	ld	r18, Z
    27aa:	80 e4       	ldi	r24, 0x40	; 64
    27ac:	90 e0       	ldi	r25, 0x00	; 0
    27ae:	22 60       	ori	r18, 0x02	; 2
    27b0:	dc 01       	movw	r26, r24
    27b2:	2c 93       	st	X, r18
    27b4:	80 e4       	ldi	r24, 0x40	; 64
    27b6:	90 e0       	ldi	r25, 0x00	; 0
    27b8:	fc 01       	movw	r30, r24
    27ba:	20 81       	ld	r18, Z
    27bc:	80 e4       	ldi	r24, 0x40	; 64
    27be:	90 e0       	ldi	r25, 0x00	; 0
    27c0:	24 60       	ori	r18, 0x04	; 4
    27c2:	dc 01       	movw	r26, r24
    27c4:	2c 93       	st	X, r18
    27c6:	8a e2       	ldi	r24, 0x2A	; 42
    27c8:	90 e0       	ldi	r25, 0x00	; 0
    27ca:	fc 01       	movw	r30, r24
    27cc:	20 81       	ld	r18, Z
    27ce:	8a e2       	ldi	r24, 0x2A	; 42
    27d0:	90 e0       	ldi	r25, 0x00	; 0
    27d2:	24 60       	ori	r18, 0x04	; 4
    27d4:	dc 01       	movw	r26, r24
    27d6:	2c 93       	st	X, r18
    27d8:	81 e0       	ldi	r24, 0x01	; 1
    27da:	80 93 70 00 	sts	0x0070, r24	; 0x800070 <g_CharacterSize>
    27de:	01 c0       	rjmp	.+2      	; 0x27e2 <MCAL_UART_init+0x1e0>
    27e0:	19 82       	std	Y+1, r1	; 0x01
    27e2:	8c 81       	ldd	r24, Y+4	; 0x04
    27e4:	9d 81       	ldd	r25, Y+5	; 0x05
    27e6:	fc 01       	movw	r30, r24
    27e8:	85 81       	ldd	r24, Z+5	; 0x05
    27ea:	80 93 6f 00 	sts	0x006F, r24	; 0x80006f <g_FlagMode>
    27ee:	8c 81       	ldd	r24, Y+4	; 0x04
    27f0:	9d 81       	ldd	r25, Y+5	; 0x05
    27f2:	dc 01       	movw	r26, r24
    27f4:	15 96       	adiw	r26, 0x05	; 5
    27f6:	8c 91       	ld	r24, X
    27f8:	81 30       	cpi	r24, 0x01	; 1
    27fa:	51 f4       	brne	.+20     	; 0x2810 <MCAL_UART_init+0x20e>
    27fc:	8f e5       	ldi	r24, 0x5F	; 95
    27fe:	90 e0       	ldi	r25, 0x00	; 0
    2800:	fc 01       	movw	r30, r24
    2802:	20 81       	ld	r18, Z
    2804:	8f e5       	ldi	r24, 0x5F	; 95
    2806:	90 e0       	ldi	r25, 0x00	; 0
    2808:	20 68       	ori	r18, 0x80	; 128
    280a:	dc 01       	movw	r26, r24
    280c:	2c 93       	st	X, r18
    280e:	1a c0       	rjmp	.+52     	; 0x2844 <MCAL_UART_init+0x242>
    2810:	8c 81       	ldd	r24, Y+4	; 0x04
    2812:	9d 81       	ldd	r25, Y+5	; 0x05
    2814:	fc 01       	movw	r30, r24
    2816:	85 81       	ldd	r24, Z+5	; 0x05
    2818:	88 23       	and	r24, r24
    281a:	99 f4       	brne	.+38     	; 0x2842 <MCAL_UART_init+0x240>
    281c:	8a e2       	ldi	r24, 0x2A	; 42
    281e:	90 e0       	ldi	r25, 0x00	; 0
    2820:	dc 01       	movw	r26, r24
    2822:	2c 91       	ld	r18, X
    2824:	8a e2       	ldi	r24, 0x2A	; 42
    2826:	90 e0       	ldi	r25, 0x00	; 0
    2828:	2f 77       	andi	r18, 0x7F	; 127
    282a:	fc 01       	movw	r30, r24
    282c:	20 83       	st	Z, r18
    282e:	8a e2       	ldi	r24, 0x2A	; 42
    2830:	90 e0       	ldi	r25, 0x00	; 0
    2832:	dc 01       	movw	r26, r24
    2834:	2c 91       	ld	r18, X
    2836:	8a e2       	ldi	r24, 0x2A	; 42
    2838:	90 e0       	ldi	r25, 0x00	; 0
    283a:	2f 7d       	andi	r18, 0xDF	; 223
    283c:	fc 01       	movw	r30, r24
    283e:	20 83       	st	Z, r18
    2840:	01 c0       	rjmp	.+2      	; 0x2844 <MCAL_UART_init+0x242>
    2842:	19 82       	std	Y+1, r1	; 0x01
    2844:	8c 81       	ldd	r24, Y+4	; 0x04
    2846:	9d 81       	ldd	r25, Y+5	; 0x05
    2848:	fc 01       	movw	r30, r24
    284a:	80 81       	ld	r24, Z
    284c:	91 81       	ldd	r25, Z+1	; 0x01
    284e:	a2 81       	ldd	r26, Z+2	; 0x02
    2850:	b3 81       	ldd	r27, Z+3	; 0x03
    2852:	88 0f       	add	r24, r24
    2854:	99 1f       	adc	r25, r25
    2856:	aa 1f       	adc	r26, r26
    2858:	bb 1f       	adc	r27, r27
    285a:	88 0f       	add	r24, r24
    285c:	99 1f       	adc	r25, r25
    285e:	aa 1f       	adc	r26, r26
    2860:	bb 1f       	adc	r27, r27
    2862:	88 0f       	add	r24, r24
    2864:	99 1f       	adc	r25, r25
    2866:	aa 1f       	adc	r26, r26
    2868:	bb 1f       	adc	r27, r27
    286a:	88 0f       	add	r24, r24
    286c:	99 1f       	adc	r25, r25
    286e:	aa 1f       	adc	r26, r26
    2870:	bb 1f       	adc	r27, r27
    2872:	8c 01       	movw	r16, r24
    2874:	9d 01       	movw	r18, r26
    2876:	80 e0       	ldi	r24, 0x00	; 0
    2878:	92 e1       	ldi	r25, 0x12	; 18
    287a:	aa e7       	ldi	r26, 0x7A	; 122
    287c:	b0 e0       	ldi	r27, 0x00	; 0
    287e:	8e 83       	std	Y+6, r24	; 0x06
    2880:	9f 83       	std	Y+7, r25	; 0x07
    2882:	a8 87       	std	Y+8, r26	; 0x08
    2884:	b9 87       	std	Y+9, r27	; 0x09
    2886:	6e 81       	ldd	r22, Y+6	; 0x06
    2888:	7f 81       	ldd	r23, Y+7	; 0x07
    288a:	88 85       	ldd	r24, Y+8	; 0x08
    288c:	99 85       	ldd	r25, Y+9	; 0x09
    288e:	a9 01       	movw	r20, r18
    2890:	98 01       	movw	r18, r16
    2892:	0e 94 99 16 	call	0x2d32	; 0x2d32 <__udivmodsi4>
    2896:	da 01       	movw	r26, r20
    2898:	c9 01       	movw	r24, r18
    289a:	01 97       	sbiw	r24, 0x01	; 1
    289c:	9b 83       	std	Y+3, r25	; 0x03
    289e:	8a 83       	std	Y+2, r24	; 0x02
    28a0:	8a 81       	ldd	r24, Y+2	; 0x02
    28a2:	9b 81       	ldd	r25, Y+3	; 0x03
    28a4:	8f 3f       	cpi	r24, 0xFF	; 255
    28a6:	91 05       	cpc	r25, r1
    28a8:	09 f0       	breq	.+2      	; 0x28ac <MCAL_UART_init+0x2aa>
    28aa:	30 f4       	brcc	.+12     	; 0x28b8 <MCAL_UART_init+0x2b6>
    28ac:	89 e2       	ldi	r24, 0x29	; 41
    28ae:	90 e0       	ldi	r25, 0x00	; 0
    28b0:	2a 81       	ldd	r18, Y+2	; 0x02
    28b2:	dc 01       	movw	r26, r24
    28b4:	2c 93       	st	X, r18
    28b6:	16 c0       	rjmp	.+44     	; 0x28e4 <MCAL_UART_init+0x2e2>
    28b8:	80 e4       	ldi	r24, 0x40	; 64
    28ba:	90 e0       	ldi	r25, 0x00	; 0
    28bc:	fc 01       	movw	r30, r24
    28be:	20 81       	ld	r18, Z
    28c0:	80 e4       	ldi	r24, 0x40	; 64
    28c2:	90 e0       	ldi	r25, 0x00	; 0
    28c4:	2f 77       	andi	r18, 0x7F	; 127
    28c6:	dc 01       	movw	r26, r24
    28c8:	2c 93       	st	X, r18
    28ca:	8a 81       	ldd	r24, Y+2	; 0x02
    28cc:	9b 81       	ldd	r25, Y+3	; 0x03
    28ce:	29 2f       	mov	r18, r25
    28d0:	33 27       	eor	r19, r19
    28d2:	80 e4       	ldi	r24, 0x40	; 64
    28d4:	90 e0       	ldi	r25, 0x00	; 0
    28d6:	fc 01       	movw	r30, r24
    28d8:	20 83       	st	Z, r18
    28da:	89 e2       	ldi	r24, 0x29	; 41
    28dc:	90 e0       	ldi	r25, 0x00	; 0
    28de:	2a 81       	ldd	r18, Y+2	; 0x02
    28e0:	dc 01       	movw	r26, r24
    28e2:	2c 93       	st	X, r18
    28e4:	89 81       	ldd	r24, Y+1	; 0x01
    28e6:	29 96       	adiw	r28, 0x09	; 9
    28e8:	0f b6       	in	r0, 0x3f	; 63
    28ea:	f8 94       	cli
    28ec:	de bf       	out	0x3e, r29	; 62
    28ee:	0f be       	out	0x3f, r0	; 63
    28f0:	cd bf       	out	0x3d, r28	; 61
    28f2:	df 91       	pop	r29
    28f4:	cf 91       	pop	r28
    28f6:	1f 91       	pop	r17
    28f8:	0f 91       	pop	r16
    28fa:	08 95       	ret

000028fc <MCAL_UART_sendByteBusyWait>:
    28fc:	cf 93       	push	r28
    28fe:	df 93       	push	r29
    2900:	00 d0       	rcall	.+0      	; 0x2902 <MCAL_UART_sendByteBusyWait+0x6>
    2902:	0f 92       	push	r0
    2904:	cd b7       	in	r28, 0x3d	; 61
    2906:	de b7       	in	r29, 0x3e	; 62
    2908:	9b 83       	std	Y+3, r25	; 0x03
    290a:	8a 83       	std	Y+2, r24	; 0x02
    290c:	81 e0       	ldi	r24, 0x01	; 1
    290e:	89 83       	std	Y+1, r24	; 0x01
    2910:	8a e2       	ldi	r24, 0x2A	; 42
    2912:	90 e0       	ldi	r25, 0x00	; 0
    2914:	fc 01       	movw	r30, r24
    2916:	20 81       	ld	r18, Z
    2918:	8a e2       	ldi	r24, 0x2A	; 42
    291a:	90 e0       	ldi	r25, 0x00	; 0
    291c:	28 60       	ori	r18, 0x08	; 8
    291e:	fc 01       	movw	r30, r24
    2920:	20 83       	st	Z, r18
    2922:	00 00       	nop
    2924:	8b e2       	ldi	r24, 0x2B	; 43
    2926:	90 e0       	ldi	r25, 0x00	; 0
    2928:	fc 01       	movw	r30, r24
    292a:	80 81       	ld	r24, Z
    292c:	82 95       	swap	r24
    292e:	86 95       	lsr	r24
    2930:	87 70       	andi	r24, 0x07	; 7
    2932:	88 2f       	mov	r24, r24
    2934:	90 e0       	ldi	r25, 0x00	; 0
    2936:	81 70       	andi	r24, 0x01	; 1
    2938:	99 27       	eor	r25, r25
    293a:	01 97       	sbiw	r24, 0x01	; 1
    293c:	99 f7       	brne	.-26     	; 0x2924 <MCAL_UART_sendByteBusyWait+0x28>
    293e:	80 91 70 00 	lds	r24, 0x0070	; 0x800070 <g_CharacterSize>
    2942:	81 30       	cpi	r24, 0x01	; 1
    2944:	e1 f4       	brne	.+56     	; 0x297e <MCAL_UART_sendByteBusyWait+0x82>
    2946:	80 e4       	ldi	r24, 0x40	; 64
    2948:	90 e0       	ldi	r25, 0x00	; 0
    294a:	fc 01       	movw	r30, r24
    294c:	80 81       	ld	r24, Z
    294e:	38 2f       	mov	r19, r24
    2950:	3f 7b       	andi	r19, 0xBF	; 191
    2952:	8a 81       	ldd	r24, Y+2	; 0x02
    2954:	9b 81       	ldd	r25, Y+3	; 0x03
    2956:	89 2f       	mov	r24, r25
    2958:	99 27       	eor	r25, r25
    295a:	86 95       	lsr	r24
    295c:	82 95       	swap	r24
    295e:	88 0f       	add	r24, r24
    2960:	88 0f       	add	r24, r24
    2962:	80 7c       	andi	r24, 0xC0	; 192
    2964:	28 2f       	mov	r18, r24
    2966:	20 74       	andi	r18, 0x40	; 64
    2968:	80 e4       	ldi	r24, 0x40	; 64
    296a:	90 e0       	ldi	r25, 0x00	; 0
    296c:	23 2b       	or	r18, r19
    296e:	fc 01       	movw	r30, r24
    2970:	20 83       	st	Z, r18
    2972:	8c e2       	ldi	r24, 0x2C	; 44
    2974:	90 e0       	ldi	r25, 0x00	; 0
    2976:	2a 81       	ldd	r18, Y+2	; 0x02
    2978:	fc 01       	movw	r30, r24
    297a:	20 83       	st	Z, r18
    297c:	05 c0       	rjmp	.+10     	; 0x2988 <MCAL_UART_sendByteBusyWait+0x8c>
    297e:	8c e2       	ldi	r24, 0x2C	; 44
    2980:	90 e0       	ldi	r25, 0x00	; 0
    2982:	2a 81       	ldd	r18, Y+2	; 0x02
    2984:	fc 01       	movw	r30, r24
    2986:	20 83       	st	Z, r18
    2988:	00 00       	nop
    298a:	8b e2       	ldi	r24, 0x2B	; 43
    298c:	90 e0       	ldi	r25, 0x00	; 0
    298e:	fc 01       	movw	r30, r24
    2990:	80 81       	ld	r24, Z
    2992:	82 95       	swap	r24
    2994:	86 95       	lsr	r24
    2996:	86 95       	lsr	r24
    2998:	83 70       	andi	r24, 0x03	; 3
    299a:	88 2f       	mov	r24, r24
    299c:	90 e0       	ldi	r25, 0x00	; 0
    299e:	81 70       	andi	r24, 0x01	; 1
    29a0:	99 27       	eor	r25, r25
    29a2:	01 97       	sbiw	r24, 0x01	; 1
    29a4:	91 f7       	brne	.-28     	; 0x298a <MCAL_UART_sendByteBusyWait+0x8e>
    29a6:	8b e2       	ldi	r24, 0x2B	; 43
    29a8:	90 e0       	ldi	r25, 0x00	; 0
    29aa:	fc 01       	movw	r30, r24
    29ac:	20 81       	ld	r18, Z
    29ae:	8b e2       	ldi	r24, 0x2B	; 43
    29b0:	90 e0       	ldi	r25, 0x00	; 0
    29b2:	20 64       	ori	r18, 0x40	; 64
    29b4:	fc 01       	movw	r30, r24
    29b6:	20 83       	st	Z, r18
    29b8:	89 81       	ldd	r24, Y+1	; 0x01
    29ba:	0f 90       	pop	r0
    29bc:	0f 90       	pop	r0
    29be:	0f 90       	pop	r0
    29c0:	df 91       	pop	r29
    29c2:	cf 91       	pop	r28
    29c4:	08 95       	ret

000029c6 <MCAL_UART_recieveByteBusyWait>:
    29c6:	cf 93       	push	r28
    29c8:	df 93       	push	r29
    29ca:	00 d0       	rcall	.+0      	; 0x29cc <MCAL_UART_recieveByteBusyWait+0x6>
    29cc:	0f 92       	push	r0
    29ce:	cd b7       	in	r28, 0x3d	; 61
    29d0:	de b7       	in	r29, 0x3e	; 62
    29d2:	9b 83       	std	Y+3, r25	; 0x03
    29d4:	8a 83       	std	Y+2, r24	; 0x02
    29d6:	81 e0       	ldi	r24, 0x01	; 1
    29d8:	89 83       	std	Y+1, r24	; 0x01
    29da:	8a e2       	ldi	r24, 0x2A	; 42
    29dc:	90 e0       	ldi	r25, 0x00	; 0
    29de:	fc 01       	movw	r30, r24
    29e0:	20 81       	ld	r18, Z
    29e2:	8a e2       	ldi	r24, 0x2A	; 42
    29e4:	90 e0       	ldi	r25, 0x00	; 0
    29e6:	20 61       	ori	r18, 0x10	; 16
    29e8:	fc 01       	movw	r30, r24
    29ea:	20 83       	st	Z, r18
    29ec:	00 00       	nop
    29ee:	8b e2       	ldi	r24, 0x2B	; 43
    29f0:	90 e0       	ldi	r25, 0x00	; 0
    29f2:	fc 01       	movw	r30, r24
    29f4:	80 81       	ld	r24, Z
    29f6:	88 1f       	adc	r24, r24
    29f8:	88 27       	eor	r24, r24
    29fa:	88 1f       	adc	r24, r24
    29fc:	88 2f       	mov	r24, r24
    29fe:	90 e0       	ldi	r25, 0x00	; 0
    2a00:	81 70       	andi	r24, 0x01	; 1
    2a02:	99 27       	eor	r25, r25
    2a04:	01 97       	sbiw	r24, 0x01	; 1
    2a06:	99 f7       	brne	.-26     	; 0x29ee <MCAL_UART_recieveByteBusyWait+0x28>
    2a08:	00 00       	nop
    2a0a:	8b e2       	ldi	r24, 0x2B	; 43
    2a0c:	90 e0       	ldi	r25, 0x00	; 0
    2a0e:	fc 01       	movw	r30, r24
    2a10:	80 81       	ld	r24, Z
    2a12:	82 95       	swap	r24
    2a14:	86 95       	lsr	r24
    2a16:	87 70       	andi	r24, 0x07	; 7
    2a18:	88 2f       	mov	r24, r24
    2a1a:	90 e0       	ldi	r25, 0x00	; 0
    2a1c:	81 70       	andi	r24, 0x01	; 1
    2a1e:	99 27       	eor	r25, r25
    2a20:	01 97       	sbiw	r24, 0x01	; 1
    2a22:	99 f7       	brne	.-26     	; 0x2a0a <MCAL_UART_recieveByteBusyWait+0x44>
    2a24:	80 91 70 00 	lds	r24, 0x0070	; 0x800070 <g_CharacterSize>
    2a28:	81 30       	cpi	r24, 0x01	; 1
    2a2a:	41 f5       	brne	.+80     	; 0x2a7c <MCAL_UART_recieveByteBusyWait+0xb6>
    2a2c:	8a 81       	ldd	r24, Y+2	; 0x02
    2a2e:	9b 81       	ldd	r25, Y+3	; 0x03
    2a30:	fc 01       	movw	r30, r24
    2a32:	80 81       	ld	r24, Z
    2a34:	91 81       	ldd	r25, Z+1	; 0x01
    2a36:	9c 01       	movw	r18, r24
    2a38:	3d 7f       	andi	r19, 0xFD	; 253
    2a3a:	80 e4       	ldi	r24, 0x40	; 64
    2a3c:	90 e0       	ldi	r25, 0x00	; 0
    2a3e:	fc 01       	movw	r30, r24
    2a40:	80 81       	ld	r24, Z
    2a42:	88 1f       	adc	r24, r24
    2a44:	88 27       	eor	r24, r24
    2a46:	88 1f       	adc	r24, r24
    2a48:	88 2f       	mov	r24, r24
    2a4a:	90 e0       	ldi	r25, 0x00	; 0
    2a4c:	98 2f       	mov	r25, r24
    2a4e:	88 27       	eor	r24, r24
    2a50:	99 0f       	add	r25, r25
    2a52:	88 27       	eor	r24, r24
    2a54:	92 70       	andi	r25, 0x02	; 2
    2a56:	28 2b       	or	r18, r24
    2a58:	39 2b       	or	r19, r25
    2a5a:	8a 81       	ldd	r24, Y+2	; 0x02
    2a5c:	9b 81       	ldd	r25, Y+3	; 0x03
    2a5e:	fc 01       	movw	r30, r24
    2a60:	31 83       	std	Z+1, r19	; 0x01
    2a62:	20 83       	st	Z, r18
    2a64:	8c e2       	ldi	r24, 0x2C	; 44
    2a66:	90 e0       	ldi	r25, 0x00	; 0
    2a68:	fc 01       	movw	r30, r24
    2a6a:	80 81       	ld	r24, Z
    2a6c:	28 2f       	mov	r18, r24
    2a6e:	30 e0       	ldi	r19, 0x00	; 0
    2a70:	8a 81       	ldd	r24, Y+2	; 0x02
    2a72:	9b 81       	ldd	r25, Y+3	; 0x03
    2a74:	fc 01       	movw	r30, r24
    2a76:	31 83       	std	Z+1, r19	; 0x01
    2a78:	20 83       	st	Z, r18
    2a7a:	0b c0       	rjmp	.+22     	; 0x2a92 <MCAL_UART_recieveByteBusyWait+0xcc>
    2a7c:	8c e2       	ldi	r24, 0x2C	; 44
    2a7e:	90 e0       	ldi	r25, 0x00	; 0
    2a80:	fc 01       	movw	r30, r24
    2a82:	80 81       	ld	r24, Z
    2a84:	28 2f       	mov	r18, r24
    2a86:	30 e0       	ldi	r19, 0x00	; 0
    2a88:	8a 81       	ldd	r24, Y+2	; 0x02
    2a8a:	9b 81       	ldd	r25, Y+3	; 0x03
    2a8c:	fc 01       	movw	r30, r24
    2a8e:	31 83       	std	Z+1, r19	; 0x01
    2a90:	20 83       	st	Z, r18
    2a92:	89 81       	ldd	r24, Y+1	; 0x01
    2a94:	0f 90       	pop	r0
    2a96:	0f 90       	pop	r0
    2a98:	0f 90       	pop	r0
    2a9a:	df 91       	pop	r29
    2a9c:	cf 91       	pop	r28
    2a9e:	08 95       	ret

00002aa0 <MCAL_UART_RecieveCallBack>:
    2aa0:	cf 93       	push	r28
    2aa2:	df 93       	push	r29
    2aa4:	00 d0       	rcall	.+0      	; 0x2aa6 <MCAL_UART_RecieveCallBack+0x6>
    2aa6:	0f 92       	push	r0
    2aa8:	cd b7       	in	r28, 0x3d	; 61
    2aaa:	de b7       	in	r29, 0x3e	; 62
    2aac:	9b 83       	std	Y+3, r25	; 0x03
    2aae:	8a 83       	std	Y+2, r24	; 0x02
    2ab0:	81 e0       	ldi	r24, 0x01	; 1
    2ab2:	89 83       	std	Y+1, r24	; 0x01
    2ab4:	8a 81       	ldd	r24, Y+2	; 0x02
    2ab6:	9b 81       	ldd	r25, Y+3	; 0x03
    2ab8:	89 2b       	or	r24, r25
    2aba:	c9 f0       	breq	.+50     	; 0x2aee <MCAL_UART_RecieveCallBack+0x4e>
    2abc:	8a e2       	ldi	r24, 0x2A	; 42
    2abe:	90 e0       	ldi	r25, 0x00	; 0
    2ac0:	fc 01       	movw	r30, r24
    2ac2:	20 81       	ld	r18, Z
    2ac4:	8a e2       	ldi	r24, 0x2A	; 42
    2ac6:	90 e0       	ldi	r25, 0x00	; 0
    2ac8:	20 61       	ori	r18, 0x10	; 16
    2aca:	fc 01       	movw	r30, r24
    2acc:	20 83       	st	Z, r18
    2ace:	8a e2       	ldi	r24, 0x2A	; 42
    2ad0:	90 e0       	ldi	r25, 0x00	; 0
    2ad2:	fc 01       	movw	r30, r24
    2ad4:	20 81       	ld	r18, Z
    2ad6:	8a e2       	ldi	r24, 0x2A	; 42
    2ad8:	90 e0       	ldi	r25, 0x00	; 0
    2ada:	20 68       	ori	r18, 0x80	; 128
    2adc:	fc 01       	movw	r30, r24
    2ade:	20 83       	st	Z, r18
    2ae0:	8a 81       	ldd	r24, Y+2	; 0x02
    2ae2:	9b 81       	ldd	r25, Y+3	; 0x03
    2ae4:	90 93 74 00 	sts	0x0074, r25	; 0x800074 <UART_RX_CallBack+0x1>
    2ae8:	80 93 73 00 	sts	0x0073, r24	; 0x800073 <UART_RX_CallBack>
    2aec:	01 c0       	rjmp	.+2      	; 0x2af0 <MCAL_UART_RecieveCallBack+0x50>
    2aee:	19 82       	std	Y+1, r1	; 0x01
    2af0:	89 81       	ldd	r24, Y+1	; 0x01
    2af2:	0f 90       	pop	r0
    2af4:	0f 90       	pop	r0
    2af6:	0f 90       	pop	r0
    2af8:	df 91       	pop	r29
    2afa:	cf 91       	pop	r28
    2afc:	08 95       	ret

00002afe <__vector_13>:
    2afe:	1f 92       	push	r1
    2b00:	0f 92       	push	r0
    2b02:	0f b6       	in	r0, 0x3f	; 63
    2b04:	0f 92       	push	r0
    2b06:	11 24       	eor	r1, r1
    2b08:	2f 93       	push	r18
    2b0a:	3f 93       	push	r19
    2b0c:	4f 93       	push	r20
    2b0e:	5f 93       	push	r21
    2b10:	6f 93       	push	r22
    2b12:	7f 93       	push	r23
    2b14:	8f 93       	push	r24
    2b16:	9f 93       	push	r25
    2b18:	af 93       	push	r26
    2b1a:	bf 93       	push	r27
    2b1c:	ef 93       	push	r30
    2b1e:	ff 93       	push	r31
    2b20:	cf 93       	push	r28
    2b22:	df 93       	push	r29
    2b24:	00 d0       	rcall	.+0      	; 0x2b26 <__vector_13+0x28>
    2b26:	cd b7       	in	r28, 0x3d	; 61
    2b28:	de b7       	in	r29, 0x3e	; 62
    2b2a:	80 91 73 00 	lds	r24, 0x0073	; 0x800073 <UART_RX_CallBack>
    2b2e:	90 91 74 00 	lds	r25, 0x0074	; 0x800074 <UART_RX_CallBack+0x1>
    2b32:	89 2b       	or	r24, r25
    2b34:	09 f4       	brne	.+2      	; 0x2b38 <__vector_13+0x3a>
    2b36:	4f c0       	rjmp	.+158    	; 0x2bd6 <__vector_13+0xd8>
    2b38:	80 91 70 00 	lds	r24, 0x0070	; 0x800070 <g_CharacterSize>
    2b3c:	81 30       	cpi	r24, 0x01	; 1
    2b3e:	69 f5       	brne	.+90     	; 0x2b9a <__vector_13+0x9c>
    2b40:	89 81       	ldd	r24, Y+1	; 0x01
    2b42:	9a 81       	ldd	r25, Y+2	; 0x02
    2b44:	9c 01       	movw	r18, r24
    2b46:	3d 7f       	andi	r19, 0xFD	; 253
    2b48:	80 e4       	ldi	r24, 0x40	; 64
    2b4a:	90 e0       	ldi	r25, 0x00	; 0
    2b4c:	fc 01       	movw	r30, r24
    2b4e:	80 81       	ld	r24, Z
    2b50:	88 1f       	adc	r24, r24
    2b52:	88 27       	eor	r24, r24
    2b54:	88 1f       	adc	r24, r24
    2b56:	88 2f       	mov	r24, r24
    2b58:	90 e0       	ldi	r25, 0x00	; 0
    2b5a:	98 2f       	mov	r25, r24
    2b5c:	88 27       	eor	r24, r24
    2b5e:	99 0f       	add	r25, r25
    2b60:	88 27       	eor	r24, r24
    2b62:	92 70       	andi	r25, 0x02	; 2
    2b64:	82 2b       	or	r24, r18
    2b66:	93 2b       	or	r25, r19
    2b68:	9a 83       	std	Y+2, r25	; 0x02
    2b6a:	89 83       	std	Y+1, r24	; 0x01
    2b6c:	00 00       	nop
    2b6e:	8b e2       	ldi	r24, 0x2B	; 43
    2b70:	90 e0       	ldi	r25, 0x00	; 0
    2b72:	fc 01       	movw	r30, r24
    2b74:	80 81       	ld	r24, Z
    2b76:	82 95       	swap	r24
    2b78:	86 95       	lsr	r24
    2b7a:	87 70       	andi	r24, 0x07	; 7
    2b7c:	88 2f       	mov	r24, r24
    2b7e:	90 e0       	ldi	r25, 0x00	; 0
    2b80:	81 70       	andi	r24, 0x01	; 1
    2b82:	99 27       	eor	r25, r25
    2b84:	01 97       	sbiw	r24, 0x01	; 1
    2b86:	99 f7       	brne	.-26     	; 0x2b6e <__vector_13+0x70>
    2b88:	8c e2       	ldi	r24, 0x2C	; 44
    2b8a:	90 e0       	ldi	r25, 0x00	; 0
    2b8c:	fc 01       	movw	r30, r24
    2b8e:	80 81       	ld	r24, Z
    2b90:	88 2f       	mov	r24, r24
    2b92:	90 e0       	ldi	r25, 0x00	; 0
    2b94:	9a 83       	std	Y+2, r25	; 0x02
    2b96:	89 83       	std	Y+1, r24	; 0x01
    2b98:	16 c0       	rjmp	.+44     	; 0x2bc6 <__vector_13+0xc8>
    2b9a:	00 00       	nop
    2b9c:	8b e2       	ldi	r24, 0x2B	; 43
    2b9e:	90 e0       	ldi	r25, 0x00	; 0
    2ba0:	fc 01       	movw	r30, r24
    2ba2:	80 81       	ld	r24, Z
    2ba4:	82 95       	swap	r24
    2ba6:	86 95       	lsr	r24
    2ba8:	87 70       	andi	r24, 0x07	; 7
    2baa:	88 2f       	mov	r24, r24
    2bac:	90 e0       	ldi	r25, 0x00	; 0
    2bae:	81 70       	andi	r24, 0x01	; 1
    2bb0:	99 27       	eor	r25, r25
    2bb2:	01 97       	sbiw	r24, 0x01	; 1
    2bb4:	99 f7       	brne	.-26     	; 0x2b9c <__vector_13+0x9e>
    2bb6:	8c e2       	ldi	r24, 0x2C	; 44
    2bb8:	90 e0       	ldi	r25, 0x00	; 0
    2bba:	fc 01       	movw	r30, r24
    2bbc:	80 81       	ld	r24, Z
    2bbe:	88 2f       	mov	r24, r24
    2bc0:	90 e0       	ldi	r25, 0x00	; 0
    2bc2:	9a 83       	std	Y+2, r25	; 0x02
    2bc4:	89 83       	std	Y+1, r24	; 0x01
    2bc6:	20 91 73 00 	lds	r18, 0x0073	; 0x800073 <UART_RX_CallBack>
    2bca:	30 91 74 00 	lds	r19, 0x0074	; 0x800074 <UART_RX_CallBack+0x1>
    2bce:	89 81       	ldd	r24, Y+1	; 0x01
    2bd0:	9a 81       	ldd	r25, Y+2	; 0x02
    2bd2:	f9 01       	movw	r30, r18
    2bd4:	09 95       	icall
    2bd6:	00 00       	nop
    2bd8:	0f 90       	pop	r0
    2bda:	0f 90       	pop	r0
    2bdc:	df 91       	pop	r29
    2bde:	cf 91       	pop	r28
    2be0:	ff 91       	pop	r31
    2be2:	ef 91       	pop	r30
    2be4:	bf 91       	pop	r27
    2be6:	af 91       	pop	r26
    2be8:	9f 91       	pop	r25
    2bea:	8f 91       	pop	r24
    2bec:	7f 91       	pop	r23
    2bee:	6f 91       	pop	r22
    2bf0:	5f 91       	pop	r21
    2bf2:	4f 91       	pop	r20
    2bf4:	3f 91       	pop	r19
    2bf6:	2f 91       	pop	r18
    2bf8:	0f 90       	pop	r0
    2bfa:	0f be       	out	0x3f, r0	; 63
    2bfc:	0f 90       	pop	r0
    2bfe:	1f 90       	pop	r1
    2c00:	18 95       	reti

00002c02 <MCAL_UART_SendCallBack>:
    2c02:	cf 93       	push	r28
    2c04:	df 93       	push	r29
    2c06:	00 d0       	rcall	.+0      	; 0x2c08 <MCAL_UART_SendCallBack+0x6>
    2c08:	0f 92       	push	r0
    2c0a:	cd b7       	in	r28, 0x3d	; 61
    2c0c:	de b7       	in	r29, 0x3e	; 62
    2c0e:	9b 83       	std	Y+3, r25	; 0x03
    2c10:	8a 83       	std	Y+2, r24	; 0x02
    2c12:	81 e0       	ldi	r24, 0x01	; 1
    2c14:	89 83       	std	Y+1, r24	; 0x01
    2c16:	8a 81       	ldd	r24, Y+2	; 0x02
    2c18:	9b 81       	ldd	r25, Y+3	; 0x03
    2c1a:	89 2b       	or	r24, r25
    2c1c:	c9 f0       	breq	.+50     	; 0x2c50 <MCAL_UART_SendCallBack+0x4e>
    2c1e:	8a e2       	ldi	r24, 0x2A	; 42
    2c20:	90 e0       	ldi	r25, 0x00	; 0
    2c22:	fc 01       	movw	r30, r24
    2c24:	20 81       	ld	r18, Z
    2c26:	8a e2       	ldi	r24, 0x2A	; 42
    2c28:	90 e0       	ldi	r25, 0x00	; 0
    2c2a:	28 60       	ori	r18, 0x08	; 8
    2c2c:	fc 01       	movw	r30, r24
    2c2e:	20 83       	st	Z, r18
    2c30:	8a 81       	ldd	r24, Y+2	; 0x02
    2c32:	9b 81       	ldd	r25, Y+3	; 0x03
    2c34:	90 93 72 00 	sts	0x0072, r25	; 0x800072 <UART_UDR_CallBack+0x1>
    2c38:	80 93 71 00 	sts	0x0071, r24	; 0x800071 <UART_UDR_CallBack>
    2c3c:	8a e2       	ldi	r24, 0x2A	; 42
    2c3e:	90 e0       	ldi	r25, 0x00	; 0
    2c40:	fc 01       	movw	r30, r24
    2c42:	20 81       	ld	r18, Z
    2c44:	8a e2       	ldi	r24, 0x2A	; 42
    2c46:	90 e0       	ldi	r25, 0x00	; 0
    2c48:	20 62       	ori	r18, 0x20	; 32
    2c4a:	fc 01       	movw	r30, r24
    2c4c:	20 83       	st	Z, r18
    2c4e:	01 c0       	rjmp	.+2      	; 0x2c52 <MCAL_UART_SendCallBack+0x50>
    2c50:	19 82       	std	Y+1, r1	; 0x01
    2c52:	89 81       	ldd	r24, Y+1	; 0x01
    2c54:	0f 90       	pop	r0
    2c56:	0f 90       	pop	r0
    2c58:	0f 90       	pop	r0
    2c5a:	df 91       	pop	r29
    2c5c:	cf 91       	pop	r28
    2c5e:	08 95       	ret

00002c60 <__vector_14>:
    2c60:	1f 92       	push	r1
    2c62:	0f 92       	push	r0
    2c64:	0f b6       	in	r0, 0x3f	; 63
    2c66:	0f 92       	push	r0
    2c68:	11 24       	eor	r1, r1
    2c6a:	2f 93       	push	r18
    2c6c:	3f 93       	push	r19
    2c6e:	8f 93       	push	r24
    2c70:	9f 93       	push	r25
    2c72:	ef 93       	push	r30
    2c74:	ff 93       	push	r31
    2c76:	cf 93       	push	r28
    2c78:	df 93       	push	r29
    2c7a:	cd b7       	in	r28, 0x3d	; 61
    2c7c:	de b7       	in	r29, 0x3e	; 62
    2c7e:	80 91 71 00 	lds	r24, 0x0071	; 0x800071 <UART_UDR_CallBack>
    2c82:	90 91 72 00 	lds	r25, 0x0072	; 0x800072 <UART_UDR_CallBack+0x1>
    2c86:	fc 01       	movw	r30, r24
    2c88:	20 81       	ld	r18, Z
    2c8a:	31 81       	ldd	r19, Z+1	; 0x01
    2c8c:	8c e2       	ldi	r24, 0x2C	; 44
    2c8e:	90 e0       	ldi	r25, 0x00	; 0
    2c90:	fc 01       	movw	r30, r24
    2c92:	20 83       	st	Z, r18
    2c94:	00 00       	nop
    2c96:	8b e2       	ldi	r24, 0x2B	; 43
    2c98:	90 e0       	ldi	r25, 0x00	; 0
    2c9a:	fc 01       	movw	r30, r24
    2c9c:	80 81       	ld	r24, Z
    2c9e:	82 95       	swap	r24
    2ca0:	86 95       	lsr	r24
    2ca2:	86 95       	lsr	r24
    2ca4:	83 70       	andi	r24, 0x03	; 3
    2ca6:	88 2f       	mov	r24, r24
    2ca8:	90 e0       	ldi	r25, 0x00	; 0
    2caa:	81 70       	andi	r24, 0x01	; 1
    2cac:	99 27       	eor	r25, r25
    2cae:	01 97       	sbiw	r24, 0x01	; 1
    2cb0:	91 f7       	brne	.-28     	; 0x2c96 <__vector_14+0x36>
    2cb2:	8b e2       	ldi	r24, 0x2B	; 43
    2cb4:	90 e0       	ldi	r25, 0x00	; 0
    2cb6:	fc 01       	movw	r30, r24
    2cb8:	20 81       	ld	r18, Z
    2cba:	8b e2       	ldi	r24, 0x2B	; 43
    2cbc:	90 e0       	ldi	r25, 0x00	; 0
    2cbe:	20 64       	ori	r18, 0x40	; 64
    2cc0:	fc 01       	movw	r30, r24
    2cc2:	20 83       	st	Z, r18
    2cc4:	8a e2       	ldi	r24, 0x2A	; 42
    2cc6:	90 e0       	ldi	r25, 0x00	; 0
    2cc8:	fc 01       	movw	r30, r24
    2cca:	20 81       	ld	r18, Z
    2ccc:	8a e2       	ldi	r24, 0x2A	; 42
    2cce:	90 e0       	ldi	r25, 0x00	; 0
    2cd0:	2f 7d       	andi	r18, 0xDF	; 223
    2cd2:	fc 01       	movw	r30, r24
    2cd4:	20 83       	st	Z, r18
    2cd6:	00 00       	nop
    2cd8:	df 91       	pop	r29
    2cda:	cf 91       	pop	r28
    2cdc:	ff 91       	pop	r31
    2cde:	ef 91       	pop	r30
    2ce0:	9f 91       	pop	r25
    2ce2:	8f 91       	pop	r24
    2ce4:	3f 91       	pop	r19
    2ce6:	2f 91       	pop	r18
    2ce8:	0f 90       	pop	r0
    2cea:	0f be       	out	0x3f, r0	; 63
    2cec:	0f 90       	pop	r0
    2cee:	1f 90       	pop	r1
    2cf0:	18 95       	reti

00002cf2 <UART_Transmit>:
    2cf2:	cf 93       	push	r28
    2cf4:	df 93       	push	r29
    2cf6:	0f 92       	push	r0
    2cf8:	cd b7       	in	r28, 0x3d	; 61
    2cfa:	de b7       	in	r29, 0x3e	; 62
    2cfc:	89 83       	std	Y+1, r24	; 0x01
    2cfe:	8c e2       	ldi	r24, 0x2C	; 44
    2d00:	90 e0       	ldi	r25, 0x00	; 0
    2d02:	29 81       	ldd	r18, Y+1	; 0x01
    2d04:	fc 01       	movw	r30, r24
    2d06:	20 83       	st	Z, r18
    2d08:	00 00       	nop
    2d0a:	8b e2       	ldi	r24, 0x2B	; 43
    2d0c:	90 e0       	ldi	r25, 0x00	; 0
    2d0e:	fc 01       	movw	r30, r24
    2d10:	80 81       	ld	r24, Z
    2d12:	82 95       	swap	r24
    2d14:	86 95       	lsr	r24
    2d16:	86 95       	lsr	r24
    2d18:	83 70       	andi	r24, 0x03	; 3
    2d1a:	88 2f       	mov	r24, r24
    2d1c:	90 e0       	ldi	r25, 0x00	; 0
    2d1e:	81 70       	andi	r24, 0x01	; 1
    2d20:	99 27       	eor	r25, r25
    2d22:	01 97       	sbiw	r24, 0x01	; 1
    2d24:	91 f7       	brne	.-28     	; 0x2d0a <UART_Transmit+0x18>
    2d26:	00 00       	nop
    2d28:	00 00       	nop
    2d2a:	0f 90       	pop	r0
    2d2c:	df 91       	pop	r29
    2d2e:	cf 91       	pop	r28
    2d30:	08 95       	ret

00002d32 <__udivmodsi4>:
    2d32:	a1 e2       	ldi	r26, 0x21	; 33
    2d34:	1a 2e       	mov	r1, r26
    2d36:	aa 1b       	sub	r26, r26
    2d38:	bb 1b       	sub	r27, r27
    2d3a:	fd 01       	movw	r30, r26
    2d3c:	0d c0       	rjmp	.+26     	; 0x2d58 <__udivmodsi4_ep>

00002d3e <__udivmodsi4_loop>:
    2d3e:	aa 1f       	adc	r26, r26
    2d40:	bb 1f       	adc	r27, r27
    2d42:	ee 1f       	adc	r30, r30
    2d44:	ff 1f       	adc	r31, r31
    2d46:	a2 17       	cp	r26, r18
    2d48:	b3 07       	cpc	r27, r19
    2d4a:	e4 07       	cpc	r30, r20
    2d4c:	f5 07       	cpc	r31, r21
    2d4e:	20 f0       	brcs	.+8      	; 0x2d58 <__udivmodsi4_ep>
    2d50:	a2 1b       	sub	r26, r18
    2d52:	b3 0b       	sbc	r27, r19
    2d54:	e4 0b       	sbc	r30, r20
    2d56:	f5 0b       	sbc	r31, r21

00002d58 <__udivmodsi4_ep>:
    2d58:	66 1f       	adc	r22, r22
    2d5a:	77 1f       	adc	r23, r23
    2d5c:	88 1f       	adc	r24, r24
    2d5e:	99 1f       	adc	r25, r25
    2d60:	1a 94       	dec	r1
    2d62:	69 f7       	brne	.-38     	; 0x2d3e <__udivmodsi4_loop>
    2d64:	60 95       	com	r22
    2d66:	70 95       	com	r23
    2d68:	80 95       	com	r24
    2d6a:	90 95       	com	r25
    2d6c:	9b 01       	movw	r18, r22
    2d6e:	ac 01       	movw	r20, r24
    2d70:	bd 01       	movw	r22, r26
    2d72:	cf 01       	movw	r24, r30
    2d74:	08 95       	ret

00002d76 <__umulhisi3>:
    2d76:	a2 9f       	mul	r26, r18
    2d78:	b0 01       	movw	r22, r0
    2d7a:	b3 9f       	mul	r27, r19
    2d7c:	c0 01       	movw	r24, r0
    2d7e:	a3 9f       	mul	r26, r19
    2d80:	70 0d       	add	r23, r0
    2d82:	81 1d       	adc	r24, r1
    2d84:	11 24       	eor	r1, r1
    2d86:	91 1d       	adc	r25, r1
    2d88:	b2 9f       	mul	r27, r18
    2d8a:	70 0d       	add	r23, r0
    2d8c:	81 1d       	adc	r24, r1
    2d8e:	11 24       	eor	r1, r1
    2d90:	91 1d       	adc	r25, r1
    2d92:	08 95       	ret

00002d94 <__cmpsf2>:
    2d94:	0e 94 fe 16 	call	0x2dfc	; 0x2dfc <__fp_cmp>
    2d98:	08 f4       	brcc	.+2      	; 0x2d9c <__cmpsf2+0x8>
    2d9a:	81 e0       	ldi	r24, 0x01	; 1
    2d9c:	08 95       	ret

00002d9e <__fixunssfsi>:
    2d9e:	0e 94 2a 17 	call	0x2e54	; 0x2e54 <__fp_splitA>
    2da2:	88 f0       	brcs	.+34     	; 0x2dc6 <__fixunssfsi+0x28>
    2da4:	9f 57       	subi	r25, 0x7F	; 127
    2da6:	98 f0       	brcs	.+38     	; 0x2dce <__fixunssfsi+0x30>
    2da8:	b9 2f       	mov	r27, r25
    2daa:	99 27       	eor	r25, r25
    2dac:	b7 51       	subi	r27, 0x17	; 23
    2dae:	b0 f0       	brcs	.+44     	; 0x2ddc <__fixunssfsi+0x3e>
    2db0:	e1 f0       	breq	.+56     	; 0x2dea <__fixunssfsi+0x4c>
    2db2:	66 0f       	add	r22, r22
    2db4:	77 1f       	adc	r23, r23
    2db6:	88 1f       	adc	r24, r24
    2db8:	99 1f       	adc	r25, r25
    2dba:	1a f0       	brmi	.+6      	; 0x2dc2 <__fixunssfsi+0x24>
    2dbc:	ba 95       	dec	r27
    2dbe:	c9 f7       	brne	.-14     	; 0x2db2 <__fixunssfsi+0x14>
    2dc0:	14 c0       	rjmp	.+40     	; 0x2dea <__fixunssfsi+0x4c>
    2dc2:	b1 30       	cpi	r27, 0x01	; 1
    2dc4:	91 f0       	breq	.+36     	; 0x2dea <__fixunssfsi+0x4c>
    2dc6:	0e 94 44 17 	call	0x2e88	; 0x2e88 <__fp_zero>
    2dca:	b1 e0       	ldi	r27, 0x01	; 1
    2dcc:	08 95       	ret
    2dce:	0c 94 44 17 	jmp	0x2e88	; 0x2e88 <__fp_zero>
    2dd2:	67 2f       	mov	r22, r23
    2dd4:	78 2f       	mov	r23, r24
    2dd6:	88 27       	eor	r24, r24
    2dd8:	b8 5f       	subi	r27, 0xF8	; 248
    2dda:	39 f0       	breq	.+14     	; 0x2dea <__fixunssfsi+0x4c>
    2ddc:	b9 3f       	cpi	r27, 0xF9	; 249
    2dde:	cc f3       	brlt	.-14     	; 0x2dd2 <__fixunssfsi+0x34>
    2de0:	86 95       	lsr	r24
    2de2:	77 95       	ror	r23
    2de4:	67 95       	ror	r22
    2de6:	b3 95       	inc	r27
    2de8:	d9 f7       	brne	.-10     	; 0x2de0 <__fixunssfsi+0x42>
    2dea:	3e f4       	brtc	.+14     	; 0x2dfa <__fixunssfsi+0x5c>
    2dec:	90 95       	com	r25
    2dee:	80 95       	com	r24
    2df0:	70 95       	com	r23
    2df2:	61 95       	neg	r22
    2df4:	7f 4f       	sbci	r23, 0xFF	; 255
    2df6:	8f 4f       	sbci	r24, 0xFF	; 255
    2df8:	9f 4f       	sbci	r25, 0xFF	; 255
    2dfa:	08 95       	ret

00002dfc <__fp_cmp>:
    2dfc:	99 0f       	add	r25, r25
    2dfe:	00 08       	sbc	r0, r0
    2e00:	55 0f       	add	r21, r21
    2e02:	aa 0b       	sbc	r26, r26
    2e04:	e0 e8       	ldi	r30, 0x80	; 128
    2e06:	fe ef       	ldi	r31, 0xFE	; 254
    2e08:	16 16       	cp	r1, r22
    2e0a:	17 06       	cpc	r1, r23
    2e0c:	e8 07       	cpc	r30, r24
    2e0e:	f9 07       	cpc	r31, r25
    2e10:	c0 f0       	brcs	.+48     	; 0x2e42 <__fp_cmp+0x46>
    2e12:	12 16       	cp	r1, r18
    2e14:	13 06       	cpc	r1, r19
    2e16:	e4 07       	cpc	r30, r20
    2e18:	f5 07       	cpc	r31, r21
    2e1a:	98 f0       	brcs	.+38     	; 0x2e42 <__fp_cmp+0x46>
    2e1c:	62 1b       	sub	r22, r18
    2e1e:	73 0b       	sbc	r23, r19
    2e20:	84 0b       	sbc	r24, r20
    2e22:	95 0b       	sbc	r25, r21
    2e24:	39 f4       	brne	.+14     	; 0x2e34 <__fp_cmp+0x38>
    2e26:	0a 26       	eor	r0, r26
    2e28:	61 f0       	breq	.+24     	; 0x2e42 <__fp_cmp+0x46>
    2e2a:	23 2b       	or	r18, r19
    2e2c:	24 2b       	or	r18, r20
    2e2e:	25 2b       	or	r18, r21
    2e30:	21 f4       	brne	.+8      	; 0x2e3a <__fp_cmp+0x3e>
    2e32:	08 95       	ret
    2e34:	0a 26       	eor	r0, r26
    2e36:	09 f4       	brne	.+2      	; 0x2e3a <__fp_cmp+0x3e>
    2e38:	a1 40       	sbci	r26, 0x01	; 1
    2e3a:	a6 95       	lsr	r26
    2e3c:	8f ef       	ldi	r24, 0xFF	; 255
    2e3e:	81 1d       	adc	r24, r1
    2e40:	81 1d       	adc	r24, r1
    2e42:	08 95       	ret

00002e44 <__fp_split3>:
    2e44:	57 fd       	sbrc	r21, 7
    2e46:	90 58       	subi	r25, 0x80	; 128
    2e48:	44 0f       	add	r20, r20
    2e4a:	55 1f       	adc	r21, r21
    2e4c:	59 f0       	breq	.+22     	; 0x2e64 <__fp_splitA+0x10>
    2e4e:	5f 3f       	cpi	r21, 0xFF	; 255
    2e50:	71 f0       	breq	.+28     	; 0x2e6e <__fp_splitA+0x1a>
    2e52:	47 95       	ror	r20

00002e54 <__fp_splitA>:
    2e54:	88 0f       	add	r24, r24
    2e56:	97 fb       	bst	r25, 7
    2e58:	99 1f       	adc	r25, r25
    2e5a:	61 f0       	breq	.+24     	; 0x2e74 <__fp_splitA+0x20>
    2e5c:	9f 3f       	cpi	r25, 0xFF	; 255
    2e5e:	79 f0       	breq	.+30     	; 0x2e7e <__fp_splitA+0x2a>
    2e60:	87 95       	ror	r24
    2e62:	08 95       	ret
    2e64:	12 16       	cp	r1, r18
    2e66:	13 06       	cpc	r1, r19
    2e68:	14 06       	cpc	r1, r20
    2e6a:	55 1f       	adc	r21, r21
    2e6c:	f2 cf       	rjmp	.-28     	; 0x2e52 <__fp_split3+0xe>
    2e6e:	46 95       	lsr	r20
    2e70:	f1 df       	rcall	.-30     	; 0x2e54 <__fp_splitA>
    2e72:	08 c0       	rjmp	.+16     	; 0x2e84 <__fp_splitA+0x30>
    2e74:	16 16       	cp	r1, r22
    2e76:	17 06       	cpc	r1, r23
    2e78:	18 06       	cpc	r1, r24
    2e7a:	99 1f       	adc	r25, r25
    2e7c:	f1 cf       	rjmp	.-30     	; 0x2e60 <__fp_splitA+0xc>
    2e7e:	86 95       	lsr	r24
    2e80:	71 05       	cpc	r23, r1
    2e82:	61 05       	cpc	r22, r1
    2e84:	08 94       	sec
    2e86:	08 95       	ret

00002e88 <__fp_zero>:
    2e88:	e8 94       	clt

00002e8a <__fp_szero>:
    2e8a:	bb 27       	eor	r27, r27
    2e8c:	66 27       	eor	r22, r22
    2e8e:	77 27       	eor	r23, r23
    2e90:	cb 01       	movw	r24, r22
    2e92:	97 f9       	bld	r25, 7
    2e94:	08 95       	ret

00002e96 <__gesf2>:
    2e96:	0e 94 fe 16 	call	0x2dfc	; 0x2dfc <__fp_cmp>
    2e9a:	08 f4       	brcc	.+2      	; 0x2e9e <__gesf2+0x8>
    2e9c:	8f ef       	ldi	r24, 0xFF	; 255
    2e9e:	08 95       	ret

00002ea0 <__mulsf3>:
    2ea0:	0e 94 63 17 	call	0x2ec6	; 0x2ec6 <__mulsf3x>
    2ea4:	0c 94 d4 17 	jmp	0x2fa8	; 0x2fa8 <__fp_round>
    2ea8:	0e 94 c6 17 	call	0x2f8c	; 0x2f8c <__fp_pscA>
    2eac:	38 f0       	brcs	.+14     	; 0x2ebc <__mulsf3+0x1c>
    2eae:	0e 94 cd 17 	call	0x2f9a	; 0x2f9a <__fp_pscB>
    2eb2:	20 f0       	brcs	.+8      	; 0x2ebc <__mulsf3+0x1c>
    2eb4:	95 23       	and	r25, r21
    2eb6:	11 f0       	breq	.+4      	; 0x2ebc <__mulsf3+0x1c>
    2eb8:	0c 94 bd 17 	jmp	0x2f7a	; 0x2f7a <__fp_inf>
    2ebc:	0c 94 c3 17 	jmp	0x2f86	; 0x2f86 <__fp_nan>
    2ec0:	11 24       	eor	r1, r1
    2ec2:	0c 94 45 17 	jmp	0x2e8a	; 0x2e8a <__fp_szero>

00002ec6 <__mulsf3x>:
    2ec6:	0e 94 22 17 	call	0x2e44	; 0x2e44 <__fp_split3>
    2eca:	70 f3       	brcs	.-36     	; 0x2ea8 <__mulsf3+0x8>

00002ecc <__mulsf3_pse>:
    2ecc:	95 9f       	mul	r25, r21
    2ece:	c1 f3       	breq	.-16     	; 0x2ec0 <__mulsf3+0x20>
    2ed0:	95 0f       	add	r25, r21
    2ed2:	50 e0       	ldi	r21, 0x00	; 0
    2ed4:	55 1f       	adc	r21, r21
    2ed6:	62 9f       	mul	r22, r18
    2ed8:	f0 01       	movw	r30, r0
    2eda:	72 9f       	mul	r23, r18
    2edc:	bb 27       	eor	r27, r27
    2ede:	f0 0d       	add	r31, r0
    2ee0:	b1 1d       	adc	r27, r1
    2ee2:	63 9f       	mul	r22, r19
    2ee4:	aa 27       	eor	r26, r26
    2ee6:	f0 0d       	add	r31, r0
    2ee8:	b1 1d       	adc	r27, r1
    2eea:	aa 1f       	adc	r26, r26
    2eec:	64 9f       	mul	r22, r20
    2eee:	66 27       	eor	r22, r22
    2ef0:	b0 0d       	add	r27, r0
    2ef2:	a1 1d       	adc	r26, r1
    2ef4:	66 1f       	adc	r22, r22
    2ef6:	82 9f       	mul	r24, r18
    2ef8:	22 27       	eor	r18, r18
    2efa:	b0 0d       	add	r27, r0
    2efc:	a1 1d       	adc	r26, r1
    2efe:	62 1f       	adc	r22, r18
    2f00:	73 9f       	mul	r23, r19
    2f02:	b0 0d       	add	r27, r0
    2f04:	a1 1d       	adc	r26, r1
    2f06:	62 1f       	adc	r22, r18
    2f08:	83 9f       	mul	r24, r19
    2f0a:	a0 0d       	add	r26, r0
    2f0c:	61 1d       	adc	r22, r1
    2f0e:	22 1f       	adc	r18, r18
    2f10:	74 9f       	mul	r23, r20
    2f12:	33 27       	eor	r19, r19
    2f14:	a0 0d       	add	r26, r0
    2f16:	61 1d       	adc	r22, r1
    2f18:	23 1f       	adc	r18, r19
    2f1a:	84 9f       	mul	r24, r20
    2f1c:	60 0d       	add	r22, r0
    2f1e:	21 1d       	adc	r18, r1
    2f20:	82 2f       	mov	r24, r18
    2f22:	76 2f       	mov	r23, r22
    2f24:	6a 2f       	mov	r22, r26
    2f26:	11 24       	eor	r1, r1
    2f28:	9f 57       	subi	r25, 0x7F	; 127
    2f2a:	50 40       	sbci	r21, 0x00	; 0
    2f2c:	9a f0       	brmi	.+38     	; 0x2f54 <__mulsf3_pse+0x88>
    2f2e:	f1 f0       	breq	.+60     	; 0x2f6c <__mulsf3_pse+0xa0>
    2f30:	88 23       	and	r24, r24
    2f32:	4a f0       	brmi	.+18     	; 0x2f46 <__mulsf3_pse+0x7a>
    2f34:	ee 0f       	add	r30, r30
    2f36:	ff 1f       	adc	r31, r31
    2f38:	bb 1f       	adc	r27, r27
    2f3a:	66 1f       	adc	r22, r22
    2f3c:	77 1f       	adc	r23, r23
    2f3e:	88 1f       	adc	r24, r24
    2f40:	91 50       	subi	r25, 0x01	; 1
    2f42:	50 40       	sbci	r21, 0x00	; 0
    2f44:	a9 f7       	brne	.-22     	; 0x2f30 <__mulsf3_pse+0x64>
    2f46:	9e 3f       	cpi	r25, 0xFE	; 254
    2f48:	51 05       	cpc	r21, r1
    2f4a:	80 f0       	brcs	.+32     	; 0x2f6c <__mulsf3_pse+0xa0>
    2f4c:	0c 94 bd 17 	jmp	0x2f7a	; 0x2f7a <__fp_inf>
    2f50:	0c 94 45 17 	jmp	0x2e8a	; 0x2e8a <__fp_szero>
    2f54:	5f 3f       	cpi	r21, 0xFF	; 255
    2f56:	e4 f3       	brlt	.-8      	; 0x2f50 <__mulsf3_pse+0x84>
    2f58:	98 3e       	cpi	r25, 0xE8	; 232
    2f5a:	d4 f3       	brlt	.-12     	; 0x2f50 <__mulsf3_pse+0x84>
    2f5c:	86 95       	lsr	r24
    2f5e:	77 95       	ror	r23
    2f60:	67 95       	ror	r22
    2f62:	b7 95       	ror	r27
    2f64:	f7 95       	ror	r31
    2f66:	e7 95       	ror	r30
    2f68:	9f 5f       	subi	r25, 0xFF	; 255
    2f6a:	c1 f7       	brne	.-16     	; 0x2f5c <__mulsf3_pse+0x90>
    2f6c:	fe 2b       	or	r31, r30
    2f6e:	88 0f       	add	r24, r24
    2f70:	91 1d       	adc	r25, r1
    2f72:	96 95       	lsr	r25
    2f74:	87 95       	ror	r24
    2f76:	97 f9       	bld	r25, 7
    2f78:	08 95       	ret

00002f7a <__fp_inf>:
    2f7a:	97 f9       	bld	r25, 7
    2f7c:	9f 67       	ori	r25, 0x7F	; 127
    2f7e:	80 e8       	ldi	r24, 0x80	; 128
    2f80:	70 e0       	ldi	r23, 0x00	; 0
    2f82:	60 e0       	ldi	r22, 0x00	; 0
    2f84:	08 95       	ret

00002f86 <__fp_nan>:
    2f86:	9f ef       	ldi	r25, 0xFF	; 255
    2f88:	80 ec       	ldi	r24, 0xC0	; 192
    2f8a:	08 95       	ret

00002f8c <__fp_pscA>:
    2f8c:	00 24       	eor	r0, r0
    2f8e:	0a 94       	dec	r0
    2f90:	16 16       	cp	r1, r22
    2f92:	17 06       	cpc	r1, r23
    2f94:	18 06       	cpc	r1, r24
    2f96:	09 06       	cpc	r0, r25
    2f98:	08 95       	ret

00002f9a <__fp_pscB>:
    2f9a:	00 24       	eor	r0, r0
    2f9c:	0a 94       	dec	r0
    2f9e:	12 16       	cp	r1, r18
    2fa0:	13 06       	cpc	r1, r19
    2fa2:	14 06       	cpc	r1, r20
    2fa4:	05 06       	cpc	r0, r21
    2fa6:	08 95       	ret

00002fa8 <__fp_round>:
    2fa8:	09 2e       	mov	r0, r25
    2faa:	03 94       	inc	r0
    2fac:	00 0c       	add	r0, r0
    2fae:	11 f4       	brne	.+4      	; 0x2fb4 <__fp_round+0xc>
    2fb0:	88 23       	and	r24, r24
    2fb2:	52 f0       	brmi	.+20     	; 0x2fc8 <__fp_round+0x20>
    2fb4:	bb 0f       	add	r27, r27
    2fb6:	40 f4       	brcc	.+16     	; 0x2fc8 <__fp_round+0x20>
    2fb8:	bf 2b       	or	r27, r31
    2fba:	11 f4       	brne	.+4      	; 0x2fc0 <__fp_round+0x18>
    2fbc:	60 ff       	sbrs	r22, 0
    2fbe:	04 c0       	rjmp	.+8      	; 0x2fc8 <__fp_round+0x20>
    2fc0:	6f 5f       	subi	r22, 0xFF	; 255
    2fc2:	7f 4f       	sbci	r23, 0xFF	; 255
    2fc4:	8f 4f       	sbci	r24, 0xFF	; 255
    2fc6:	9f 4f       	sbci	r25, 0xFF	; 255
    2fc8:	08 95       	ret

00002fca <_exit>:
    2fca:	f8 94       	cli

00002fcc <__stop_program>:
    2fcc:	ff cf       	rjmp	.-2      	; 0x2fcc <__stop_program>
